(lp0
F3000.109256
aF3000.328442
aF3000.44531
aF3000.919858
aF3000.973041
aF3001.264807
aF3001.336668
aF3002.342754
aF3002.386965
aF3002.400798
aF3002.485906
aF3002.686424
aF3002.964294
aF3003.040576
aF3003.604898
aF3003.913459
aF3004.247635
aF3004.637294
aF3005.526926
aF3006.009103
aF3006.164502
aF3006.633681
aF3006.931447
aF3006.999359
aF3007.210327
aF3007.624572
aF3007.64409
aF3007.799025
aF3007.832232
aF3007.949966
aF3008.276871
aF3008.49695
aF3008.923149
aF3009.556472
aF3009.732587
aF3009.768724
aF3009.857595
aF3010.002272
aF3010.498637
aF3010.735577
aF3010.900434
aF3011.302542
aF3011.602911
aF3012.550445
aF3012.707764
aF3012.998361
aF3013.136559
aF3013.599401
aF3014.112146
aF3014.17566
aF3014.303328
aF3014.481867
aF3014.570453
aF3014.641943
aF3014.925512
aF3015.725173
aF3015.968893
aF3016.256781
aF3016.328853
aF3017.132195
aF3017.614003
aF3018.008924
aF3018.489954
aF3019.421907
aF3019.619262
aF3019.889984
aF3020.638989
aF3021.05516
aF3021.488943
aF3022.095577
aF3022.399618
aF3023.436809
aF3024.668861
aF3024.71392
aF3025.130437
aF3025.390638
aF3025.44878
aF3025.647395
aF3026.150688
aF3026.575114
aF3026.745458
aF3027.214694
aF3027.227986
aF3027.762847
aF3027.895416
aF3028.024093
aF3028.123379
aF3028.577223
aF3028.831217
aF3028.913995
aF3028.932707
aF3029.132667
aF3030.487759
aF3030.590333
aF3030.864763
aF3031.196327
aF3031.289069
aF3031.340617
aF3031.699601
aF3031.95514
aF3032.016689
aF3033.303775
aF3033.508059
aF3035.110311
aF3035.763395
aF3037.76623
aF3038.824635
aF3039.668854
aF3040.049774
aF3043.065282
aF3043.248902
aF3046.951282
aF3048.233093
aF3049.092387
aF3049.862412
aF3050.815888
aF3050.984837
aF3051.792888
aF3056.844532
aF3058.426284
aF3060.438957
aF3060.905473
aF3061.699827
aF3065.329163
aF3065.683758
aF3065.930013
aF3066.412051
aF3067.729409
aF3070.816328
aF3072.115012
aF3072.825235
aF3073.80395
aF3075.056529
aF3075.840368
aF3076.409188
aF3077.339066
aF3077.717166
aF3077.931848
aF3079.88746
aF3080.217043
aF3081.981001
aF3082.504712
aF3085.472334
aF3086.56672
aF3093.401536
aF3096.841171
aF3097.974304
aF3098.726877
aF3100.797215
aF3100.938252
aF3101.68984
aF3107.026136
aF3107.346774
aF3108.296793
aF3110.020904
aF3111.280689
aF3112.089063
aF3116.479185
aF3117.68401
aF3120.880842
aF3123.158077
aF3124.387391
aF3125.209127
aF3126.053162
aF3127.208241
aF3129.974056
aF3133.619655
aF3134.425744
aF3134.623002
aF3135.533583
aF3136.216082
aF3137.63262
aF3139.017198
aF3140.272028
aF3141.847238
aF3142.835605
aF3145.636991
aF3146.043368
aF3147.448606
aF3151.017008
aF3153.218199
aF3155.830181
aF3156.400648
aF3157.507067
aF3159.707222
aF3160.823743
aF3161.688137
aF3162.029026
aF3163.094967
aF3163.715241
aF3165.291051
aF3169.328492
aF3169.668007
aF3169.816692
aF3171.275477
aF3171.509864
aF3172.111202
aF3173.426654
aF3174.019111
aF3174.20434
aF3175.725737
aF3176.16708
aF3178.243304
aF3179.048191
aF3180.193754
aF3181.037112
aF3181.189288
aF3182.405455
aF3182.642528
aF3184.27684
aF3184.614959
aF3184.949173
aF3186.171701
aF3190.896169
aF3191.093121
aF3191.616786
aF3193.159769
aF3193.780994
aF3195.313946
aF3195.689137
aF3198.229104
aF3204.320885
aF3205.288757
aF3207.581032
aF3207.782509
aF3209.750241
aF3210.308825
aF3210.777756
aF3211.194319
aF3212.518078
aF3214.074664
aF3216.997913
aF3220.350851
aF3222.397889
aF3225.411053
aF3226.119007
aF3227.470455
aF3229.009593
aF3230.867963
aF3232.30618
aF3235.667388
aF3235.839985
aF3237.232332
aF3238.115747
aF3238.93431
aF3240.94704
aF3241.10795
aF3242.379017
aF3244.043439
aF3244.448809
aF3245.994211
aF3248.893834
aF3251.91591
aF3252.964413
aF3253.683861
aF3254.067323
aF3256.273854
aF3256.695406
aF3257.162051
aF3259.060869
aF3259.245136
aF3262.3171
aF3262.668454
aF3263.182781
aF3264.121613
aF3267.002454
aF3268.757445
aF3270.099402
aF3271.546009
aF3272.0268
aF3275.067597
aF3275.260053
aF3275.643359
aF3276.719942
aF3282.616574
aF3285.514818
aF3286.582912
aF3287.789301
aF3288.160274
aF3290.59962
aF3291.739449
aF3292.31152
aF3294.245237
aF3297.374831
aF3297.833304
aF3304.23836
aF3307.228257
aF3309.135852
aF3309.36545
aF3313.070388
aF3313.99462
aF3318.390131
aF3319.133055
aF3320.476319
aF3321.450839
aF3322.093322
aF3322.470927
aF3324.752706
aF3325.120752
aF3325.965805
aF3326.465259
aF3327.193167
aF3327.71276
aF3330.477007
aF3331.726357
aF3333.128998
aF3333.383112
aF3334.60412
aF3335.239216
aF3335.474182
aF3336.570273
aF3337.870357
aF3338.598026
aF3341.398872
aF3341.740642
aF3343.618348
aF3343.812927
aF3346.555999
aF3347.57741
aF3349.32947
aF3350.923835
aF3351.228617
aF3352.036089
aF3353.948473
aF3354.179605
aF3355.106131
aF3355.258716
aF3357.058119
aF3357.235167
aF3360.37355
aF3362.676256
aF3365.978862
aF3367.582229
aF3371.491139
aF3373.844479
aF3374.974894
aF3378.573379
aF3378.803715
aF3379.090049
aF3380.570232
aF3380.859541
aF3383.586106
aF3385.531607
aF3386.50066
aF3387.920553
aF3389.640541
aF3390.368122
aF3392.034957
aF3393.421494
aF3393.992954
aF3394.797014
aF3395.112389
aF3395.986186
aF3396.727801
aF3397.516114
aF3398.544852
aF3402.026404
aF3403.005954
aF3405.558381
aF3406.838551
aF3408.749883
aF3409.269918
aF3414.298714
aF3417.497794
aF3418.775515
aF3419.173303
aF3423.129072
aF3423.707094
aF3423.989681
aF3426.742667
aF3427.993575
aF3428.999181
aF3429.38927
aF3430.12733
aF3431.263949
aF3433.555396
aF3435.977129
aF3437.307095
aF3438.950331
aF3439.398751
aF3441.186038
aF3441.364697
aF3441.526792
aF3445.217278
aF3445.744152
aF3446.547456
aF3448.948718
aF3449.287076
aF3450.947518
aF3451.702372
aF3452.682073
aF3454.094963
aF3455.272624
aF3456.441731
aF3457.433993
aF3458.141342
aF3458.458644
aF3461.018679
aF3461.217251
aF3461.652462
aF3462.850565
aF3463.71971
aF3466.33295
aF3466.896805
aF3467.930794
aF3468.219799
aF3469.345454
aF3469.920804
aF3470.567491
aF3471.95933
aF3476.74714
aF3477.70426
aF3478.463542
aF3478.76883
aF3480.052529
aF3481.002984
aF3484.080004
aF3484.943524
aF3485.472192
aF3488.833855
aF3489.184152
aF3489.5076
aF3490.872959
aF3491.24371
aF3491.535601
aF3491.900053
aF3495.699846
aF3496.810716
aF3497.686065
aF3498.621016
aF3501.455948
aF3504.992236
aF3505.494138
aF3506.132793
aF3506.645794
aF3506.852035
aF3509.777919
aF3514.387363
aF3516.354506
aF3516.577158
aF3516.824308
aF3518.404024
aF3519.993364
aF3521.059481
aF3521.259918
aF3523.50615
aF3523.758548
aF3524.178731
aF3524.536471
aF3527.000519
aF3527.322379
aF3528.411658
aF3529.385973
aF3530.51478
aF3531.450561
aF3536.976754
aF3537.159758
aF3538.212569
aF3539.322306
aF3539.587276
aF3539.840089
aF3541.969699
aF3545.595189
aF3545.843139
aF3547.917487
aF3548.514041
aF3549.595944
aF3551.401923
aF3553.110325
aF3554.305517
aF3555.704633
aF3556.314437
aF3556.903771
aF3561.030143
aF3561.407943
aF3563.911118
aF3565.604254
aF3566.371807
aF3567.26381
aF3569.620438
aF3569.820475
aF3570.357715
aF3570.523976
aF3571.00922
aF3571.573099
aF3572.067237
aF3573.219647
aF3577.215674
aF3577.599396
aF3578.355625
aF3578.949763
aF3581.608015
aF3582.009135
aF3582.354424
aF3584.175638
aF3588.440232
aF3589.749503
aF3589.994165
aF3591.254823
aF3591.452414
aF3594.111161
aF3594.721647
aF3594.985616
aF3595.617736
aF3597.495522
aF3598.119977
aF3598.524701
aF3599.724018
aF3600.432327
aF3601.771594
aF3603.204207
aF3605.193661
aF3606.521607
aF3607.393345
aF3608.713828
aF3608.881673
aF3609.445187
aF3611.160461
aF3612.42748
aF3615.132757
aF3615.850348
aF3616.177796
aF3617.671589
aF3618.363366
aF3618.596972
aF3619.390971
aF3624.472007
aF3625.628038
aF3629.850332
aF3631.863019
aF3634.213564
aF3635.241904
aF3635.419485
aF3635.943368
aF3636.56673
aF3638.644471
aF3639.446974
aF3642.249004
aF3642.572916
aF3643.512345
aF3643.825007
aF3644.713816
aF3644.980407
aF3645.955851
aF3647.932982
aF3648.855241
aF3649.249611
aF3650.204603
aF3652.537225
aF3656.693835
aF3657.0554
aF3658.808733
aF3661.983328
aF3664.591484
aF3666.981142
aF3667.621842
aF3668.139866
aF3671.004152
aF3672.300297
aF3672.521789
aF3672.94847
aF3673.793557
aF3674.891013
aF3675.567575
aF3675.789326
aF3675.959279
aF3676.689687
aF3677.088812
aF3679.134333
aF3679.544434
aF3679.710495
aF3680.06045
aF3683.493166
aF3685.587034
aF3687.670047
aF3690.623869
aF3691.411749
aF3691.614109
aF3692.566417
aF3694.785455
aF3695.288968
aF3695.973758
aF3697.030856
aF3697.743648
aF3698.106179
aF3699.880809
aF3700.765379
aF3700.978233
aF3702.863833
aF3703.774325
aF3706.767261
aF3711.30411
aF3711.622934
aF3715.560653
aF3715.861553
aF3717.170997
aF3717.38389
aF3717.829327
aF3719.434728
aF3721.215223
aF3721.82545
aF3723.289817
aF3723.919923
aF3725.393215
aF3727.612014
aF3727.902757
aF3729.308136
aF3732.985429
aF3733.672438
aF3734.8638
aF3737.512535
aF3737.888945
aF3740.855132
aF3741.183057
aF3742.923393
aF3743.50828
aF3745.659122
aF3745.970638
aF3747.539032
aF3748.283801
aF3752.568973
aF3752.79042
aF3753.242101
aF3754.288404
aF3754.593057
aF3755.212137
aF3756.294123
aF3757.694157
aF3758.467089
aF3758.70629
aF3760.807213
aF3761.704389
aF3764.192395
aF3766.447304
aF3768.43589
aF3771.370827
aF3772.236947
aF3772.649869
aF3773.052086
aF3773.757441
aF3774.733159
aF3776.271162
aF3778.499642
aF3779.562436
aF3783.012697
aF3783.296425
aF3784.406118
aF3784.574884
aF3785.600691
aF3786.383
aF3788.359497
aF3790.083796
aF3790.795014
aF3792.730469
aF3793.815763
aF3794.150875
aF3794.697945
aF3797.454398
aF3798.103527
aF3800.198363
aF3800.37237
aF3800.588763
aF3802.419762
aF3802.864271
aF3803.984627
aF3804.69856
aF3807.27273
aF3807.874216
aF3808.128934
aF3809.456226
aF3809.835378
aF3810.995489
aF3812.3979
aF3813.067943
aF3813.815043
aF3815.026758
aF3815.565429
aF3816.166157
aF3817.116454
aF3818.685274
aF3820.792436
aF3821.430886
aF3822.862544
aF3823.067356
aF3825.672458
aF3826.36883
aF3826.807333
aF3828.38462
aF3830.060435
aF3830.773695
aF3832.583012
aF3832.788843
aF3833.085784
aF3834.678239
aF3835.710528
aF3837.024398
aF3837.875485
aF3840.614733
aF3840.800127
aF3841.518528
aF3842.550255
aF3843.508687
aF3844.731154
aF3845.405511
aF3846.249004
aF3846.626761
aF3847.619324
aF3848.629091
aF3849.911264
aF3850.133154
aF3850.581478
aF3852.135168
aF3854.510257
aF3863.405946
aF3866.908367
aF3867.578321
aF3868.255269
aF3868.528624
aF3869.663262
aF3871.616763
aF3872.137342
aF3873.147903
aF3873.822102
aF3874.243737
aF3875.646477
aF3875.965905
aF3879.268711
aF3879.447701
aF3879.644138
aF3881.49895
aF3882.144129
aF3882.323983
aF3883.767924
aF3884.81998
aF3885.067122
aF3885.404693
aF3885.768405
aF3889.906259
aF3891.204859
aF3891.726166
aF3891.979258
aF3893.651916
aF3894.408678
aF3894.660049
aF3895.419264
aF3897.316676
aF3900.878145
aF3901.152563
aF3901.661916
aF3903.102286
aF3903.481532
aF3905.186018
aF3907.16015
aF3907.543305
aF3908.748399
aF3909.138646
aF3910.521068
aF3910.773586
aF3912.490668
aF3913.645438
aF3914.164876
aF3914.768255
aF3915.848553
aF3916.417436
aF3917.269011
aF3917.767654
aF3918.501434
aF3919.460113
aF3922.217151
aF3923.7994
aF3924.404367
aF3925.719162
aF3926.045746
aF3926.863849
aF3927.176351
aF3928.305651
aF3928.623574
aF3929.669203
aF3931.997851
aF3932.226498
aF3932.546855
aF3932.911332
aF3933.661199
aF3934.275583
aF3934.797506
aF3937.039891
aF3938.422467
aF3939.15449
aF3941.726217
aF3942.358616
aF3945.507354
aF3945.820294
aF3947.135709
aF3947.3306
aF3947.504607
aF3950.395397
aF3950.804941
aF3954.727845
aF3954.927707
aF3958.927319
aF3959.299941
aF3962.419438
aF3964.029968
aF3966.964231
aF3967.392112
aF3969.002322
aF3969.665214
aF3972.154338
aF3972.6393
aF3974.476567
aF3975.220269
aF3976.414779
aF3979.355779
aF3980.089346
aF3981.106438
aF3981.828197
aF3982.102662
aF3984.094828
aF3984.374301
aF3984.879451
aF3986.075596
aF3988.600082
aF3988.845145
aF3990.492442
aF3992.053554
aF3992.273486
aF3993.29914
aF3994.549534
aF3994.792091
aF3996.669562
aF3998.952364
aF4000.280454
aF4000.746866
aF4001.057991
aF4001.893615
aF4003.105728
aF4005.092975
aF4006.380689
aF4006.731405
aF4008.210288
aF4010.293018
aF4011.209659
aF4014.716342
aF4019.128807
aF4020.353942
aF4021.750576
aF4024.80223
aF4029.826137
aF4030.292633
aF4030.842436
aF4032.595736
aF4034.246283
aF4035.460437
aF4036.047864
aF4036.565449
aF4038.22919
aF4038.456911
aF4038.804857
aF4039.865616
aF4040.392894
aF4041.203396
aF4042.894358
aF4043.130267
aF4043.395046
aF4044.418042
aF4044.926781
aF4045.965436
aF4046.251809
aF4046.825165
aF4047.059991
aF4049.944572
aF4050.887229
aF4051.499156
aF4052.92101
aF4054.302003
aF4054.526327
aF4057.940889
aF4059.252861
aF4060.061789
aF4061.625023
aF4062.082822
aF4063.407073
aF4064.331561
aF4065.889258
aF4066.433958
aF4067.450978
aF4067.87674
aF4068.471566
aF4068.704231
aF4069.20192
aF4069.76085
aF4070.23816
aF4072.38482
aF4074.641923
aF4075.503004
aF4075.907164
aF4076.628745
aF4076.943344
aF4082.865791
aF4083.468911
aF4085.256213
aF4085.433751
aF4086.520592
aF4089.137621
aF4091.027383
aF4093.392143
aF4093.671618
aF4094.747403
aF4096.076549
aF4097.747286
aF4098.933009
aF4099.993311
aF4100.341269
aF4101.55282
aF4102.617755
aF4104.381577
aF4104.837546
aF4107.05032
aF4108.419732
aF4109.323634
aF4109.724646
aF4115.758823
aF4116.713432
aF4118.489808
aF4122.965693
aF4126.349612
aF4128.640145
aF4130.324641
aF4131.002095
aF4134.323895
aF4135.479805
aF4138.040573
aF4141.01335
aF4142.700927
aF4145.048236
aF4147.540441
aF4148.181686
aF4151.145471
aF4152.916567
aF4156.085726
aF4159.153885
aF4160.739713
aF4161.109738
aF4161.738871
aF4162.508771
aF4163.180012
aF4165.766346
aF4166.905758
aF4167.865471
aF4168.046939
aF4168.63406
aF4170.53309
aF4170.784682
aF4171.341017
aF4172.381731
aF4172.625838
aF4174.439626
aF4178.059409
aF4178.848605
aF4180.721948
aF4181.883406
aF4184.137634
aF4185.468315
aF4185.805041
aF4186.682615
aF4187.140573
aF4191.827206
aF4194.082412
aF4194.936108
aF4204.538132
aF4205.790752
aF4207.175392
aF4207.612643
aF4208.411158
aF4209.196267
aF4210.456944
aF4210.923021
aF4211.514424
aF4213.067117
aF4215.2104
aF4215.627803
aF4215.851439
aF4217.430828
aF4221.153725
aF4221.691494
aF4222.637351
aF4223.439279
aF4225.802401
aF4226.299091
aF4226.987481
aF4227.387297
aF4228.157937
aF4230.426111
aF4230.823466
aF4232.261317
aF4233.288251
aF4233.906232
aF4235.463786
aF4241.094942
aF4241.700319
aF4241.971114
aF4242.719927
aF4243.019662
aF4243.261039
aF4244.274025
aF4246.322271
aF4249.475885
aF4249.679373
aF4253.538831
aF4255.237191
aF4256.253647
aF4257.898522
aF4258.519951
aF4260.332518
aF4261.275159
aF4261.492698
aF4262.612445
aF4264.106807
aF4266.286458
aF4266.527325
aF4269.064793
aF4269.6276
aF4269.942283
aF4270.328531
aF4270.734934
aF4272.874347
aF4273.357439
aF4276.807189
aF4278.322907
aF4279.059142
aF4279.638074
aF4280.567019
aF4281.068158
aF4281.414763
aF4282.897713
aF4283.51823
aF4285.939783
aF4288.6688
aF4291.809723
aF4292.306267
aF4293.438002
aF4295.584873
aF4295.815748
aF4297.633619
aF4298.564425
aF4299.634234
aF4299.839604
aF4300.649946
aF4303.989208
aF4304.417515
aF4307.176075
aF4308.121805
aF4311.799273
aF4313.602453
aF4315.254471
aF4317.841503
aF4318.415661
aF4319.806973
aF4320.126431
aF4321.431897
aF4321.726615
aF4325.274266
aF4327.715159
aF4328.688889
aF4328.915443
aF4330.411334
aF4330.84412
aF4332.029855
aF4332.339116
aF4333.936931
aF4337.277141
aF4338.799024
aF4339.013633
aF4340.895167
aF4342.048634
aF4342.443971
aF4342.675236
aF4343.3818
aF4343.951448
aF4344.326495
aF4353.448831
aF4354.482703
aF4355.320241
aF4355.526904
aF4356.044246
aF4356.521409
aF4357.613456
aF4358.320293
aF4359.372555
aF4360.167295
aF4362.066631
aF4362.472055
aF4363.79473
aF4365.930205
aF4369.875571
aF4372.489522
aF4376.530911
aF4378.176824
aF4379.213895
aF4379.667209
aF4380.286039
aF4381.859986
aF4385.057274
aF4387.734646
aF4388.969824
aF4391.110881
aF4392.974102
aF4393.759438
aF4396.13958
aF4396.478255
aF4400.38561
aF4401.58093
aF4402.926798
aF4409.89882
aF4414.486318
aF4416.237933
aF4416.845034
aF4419.770424
aF4422.048113
aF4423.261994
aF4423.720151
aF4429.822926
aF4430.996494
aF4432.252182
aF4432.962762
aF4433.491016
aF4433.838218
aF4435.678467
aF4436.283559
aF4437.444892
aF4439.123394
aF4439.461496
aF4440.573767
aF4440.866037
aF4447.229655
aF4448.879769
aF4449.52016
aF4451.050772
aF4451.740841
aF4452.565919
aF4454.139273
aF4454.515415
aF4457.236156
aF4458.001577
aF4460.557349
aF4461.241078
aF4461.527666
aF4463.666343
aF4464.136229
aF4465.340307
aF4468.320958
aF4469.189256
aF4469.525401
aF4470.990465
aF4475.221486
aF4475.765046
aF4477.213582
aF4478.595578
aF4480.267877
aF4480.824881
aF4482.169703
aF4483.347289
aF4484.289926
aF4486.417672
aF4486.897614
aF4487.495789
aF4488.311951
aF4488.679208
aF4489.664858
aF4490.672955
aF4490.982155
aF4494.690823
aF4495.236832
aF4498.539067
aF4499.703284
aF4499.983224
aF4502.380762
aF4502.927116
aF4504.630538
aF4505.216342
aF4507.831277
aF4513.222627
aF4513.67994
aF4515.118228
aF4515.6275
aF4517.884565
aF4519.259216
aF4524.12867
aF4524.838426
aF4525.445679
aF4526.027843
aF4526.918393
aF4527.177005
aF4527.443463
aF4528.021494
aF4528.41004
aF4530.319024
aF4530.55233
aF4532.257632
aF4534.119077
aF4534.402726
aF4535.254374
aF4535.979533
aF4537.64225
aF4539.724837
aF4540.998918
aF4544.513519
aF4547.759159
aF4548.979758
aF4549.834344
aF4550.184138
aF4556.387047
aF4558.345945
aF4559.058632
aF4559.31201
aF4560.39423
aF4561.012595
aF4562.080492
aF4562.474396
aF4564.179718
aF4564.405822
aF4564.835313
aF4567.239946
aF4568.142371
aF4568.523251
aF4570.091886
aF4570.972161
aF4571.218853
aF4571.53162
aF4571.957776
aF4572.892195
aF4574.027011
aF4574.305291
aF4577.581732
aF4579.827278
aF4583.654394
aF4583.874476
aF4584.652635
aF4588.426418
aF4592.66643
aF4593.643959
aF4598.436758
aF4598.762949
aF4599.704748
aF4602.419761
aF4602.8864
aF4603.143767
aF4604.652617
aF4605.82365
aF4607.377126
aF4608.619441
aF4611.244453
aF4612.543928
aF4613.60401
aF4615.024319
aF4615.334111
aF4615.883896
aF4616.452497
aF4617.297456
aF4617.906619
aF4620.242532
aF4620.448195
aF4622.121289
aF4624.314351
aF4625.275057
aF4625.494718
aF4627.298084
aF4628.201884
aF4628.441048
aF4638.125558
aF4638.684582
aF4643.864399
aF4644.707008
aF4647.250193
aF4649.977396
aF4650.234614
aF4651.989384
aF4655.212846
aF4656.182882
aF4659.570368
aF4661.961002
aF4662.594029
aF4663.202971
aF4664.97079
aF4666.516185
aF4666.798835
aF4667.921237
aF4668.171424
aF4669.984249
aF4675.375803
aF4681.496464
aF4682.730405
aF4683.351536
aF4686.1947
aF4686.572008
aF4690.334215
aF4690.622309
aF4691.884915
aF4694.091583
aF4695.454438
aF4697.595571
aF4700.771172
aF4707.045329
aF4707.585286
aF4708.29364
aF4712.840378
aF4714.671789
aF4717.389871
aF4719.441906
aF4719.692712
aF4720.457623
aF4720.780633
aF4721.276176
aF4721.590308
aF4722.088747
aF4723.784408
aF4728.13379
aF4729.128367
aF4729.879829
aF4730.09216
aF4730.88117
aF4731.195632
aF4732.054032
aF4734.045668
aF4737.918238
aF4738.471461
aF4739.112459
aF4739.676734
aF4742.117501
aF4742.566519
aF4749.199831
aF4752.414027
aF4755.394147
aF4758.760167
aF4761.109795
aF4761.861061
aF4762.524882
aF4764.346347
aF4765.595474
aF4766.601069
aF4775.313691
aF4775.794315
aF4776.321138
aF4776.779309
aF4777.191733
aF4780.751025
aF4781.290151
aF4782.761194
aF4785.271954
aF4786.530632
aF4787.147499
aF4789.386339
aF4792.594889
aF4793.24488
aF4793.677241
aF4793.904562
aF4795.913819
aF4800.171433
aF4801.051591
aF4801.348222
aF4802.671208
aF4803.955663
aF4809.614655
aF4812.376111
aF4817.020718
aF4818.295327
aF4818.647871
aF4819.193168
aF4819.923077
aF4820.884994
aF4823.605718
aF4823.996682
aF4824.64921
aF4826.3666
aF4828.660096
aF4829.796917
aF4831.120944
aF4831.597425
aF4832.42427
aF4832.802415
aF4837.695793
aF4840.475242
aF4840.84274
aF4845.163006
aF4847.32661
aF4848.362742
aF4849.862041
aF4850.439875
aF4852.868708
aF4853.608009
aF4857.538736
aF4858.332526
aF4862.432943
aF4868.880725
aF4871.28859
aF4873.627885
aF4874.364234
aF4876.495337
aF4878.00946
aF4878.733135
aF4881.204677
aF4881.597495
aF4881.85397
aF4882.243739
aF4886.866365
aF4887.094321
aF4887.948196
aF4888.261987
aF4889.490314
aF4889.857693
aF4891.660229
aF4892.759664
aF4893.445228
aF4893.70548
aF4897.588328
aF4897.926578
aF4902.792955
aF4907.208698
aF4908.012642
aF4909.210714
aF4910.156909
aF4910.548612
aF4911.140413
aF4913.479358
aF4915.416563
aF4919.816059
aF4927.299697
aF4928.032672
aF4929.085714
aF4929.986413
aF4933.209697
aF4934.330572
aF4937.829231
aF4939.270487
aF4939.641603
aF4941.41569
aF4946.662819
aF4950.251328
aF4950.626354
aF4952.690263
aF4953.930837
aF4955.721337
aF4958.097352
aF4961.382796
aF4961.726585
aF4963.188471
aF4965.732215
aF4967.333293
aF4967.65461
aF4968.755634
aF4975.948676
aF4978.226651
aF4980.185897
aF4980.950241
aF4982.486931
aF4985.372021
aF4985.947784
aF4986.335483
aF4987.146715
aF4987.55846
aF4989.308372
aF4992.125491
aF4992.633479
aF4993.749146
aF4994.105932
aF4995.299822
aF4996.533624
aF4997.325079
aF4999.940293
aF5000.246624
aF5002.097356
aF5002.894914
aF5003.598696
aF5005.976613
aF5008.189708
aF5009.335298
aF5010.41729
aF5011.477936
aF5013.165607
aF5014.184036
aF5014.448752
aF5015.280263
aF5016.535411
aF5019.806082
aF5021.252837
aF5023.481477
aF5023.708441
aF5025.860934
aF5029.011667
aF5029.629949
aF5029.891591
aF5033.311842
aF5036.21739
aF5036.729092
aF5039.230522
aF5039.526601
aF5041.600659
aF5043.515543
aF5045.248316
aF5046.353235
aF5046.637502
aF5047.043744
aF5047.426158
aF5050.784272
aF5051.34185
aF5051.888619
aF5052.857397
aF5054.620905
aF5057.986289
aF5059.860949
aF5061.656103
aF5062.932389
aF5063.514632
aF5064.601734
aF5064.944882
aF5065.192056
aF5066.135402
aF5066.777182
aF5067.137803
aF5069.334846
aF5070.451884
aF5074.646784
aF5075.466404
aF5076.592766
aF5078.033036
aF5079.13959
aF5081.446377
aF5082.623269
aF5084.994251
aF5085.83971
aF5086.835472
aF5090.051923
aF5095.855643
aF5096.484919
aF5097.645229
aF5098.043343
aF5101.129448
aF5106.667313
aF5109.732496
aF5111.277808
aF5115.044494
aF5122.499794
aF5123.858608
aF5125.950277
aF5126.655963
aF5128.490403
aF5130.234482
aF5134.746459
aF5137.473905
aF5145.037484
aF5145.30861
aF5146.055581
aF5148.211631
aF5149.206958
aF5154.242014
aF5158.604754
aF5161.539521
aF5162.285814
aF5163.458074
aF5165.772981
aF5168.585992
aF5170.995002
aF5173.672033
aF5174.799363
aF5175.325212
aF5175.911809
aF5179.144518
aF5180.721481
aF5183.990252
aF5184.454017
aF5186.413027
aF5188.366006
aF5190.871176
aF5194.457234
aF5195.813306
aF5197.235729
aF5202.009251
aF5203.234562
aF5203.846874
aF5205.152904
aF5209.724726
aF5211.230608
aF5212.347549
aF5212.682412
aF5214.160788
aF5215.765395
aF5216.59658
aF5218.527844
aF5219.11026
aF5219.596578
aF5220.307751
aF5220.927451
aF5221.862481
aF5222.262956
aF5228.224679
aF5228.994997
aF5230.500431
aF5233.225429
aF5237.232668
aF5237.627634
aF5238.813071
aF5240.196395
aF5242.682167
aF5245.376753
aF5247.654859
aF5247.983966
aF5249.545574
aF5250.87281
aF5252.567693
aF5256.562889
aF5257.045879
aF5258.360132
aF5259.775891
aF5260.104444
aF5260.862206
aF5266.710292
aF5267.163945
aF5267.965177
aF5268.255384
aF5272.644123
aF5272.92704
aF5274.118669
aF5274.945847
aF5276.408426
aF5281.068457
aF5281.628674
aF5281.948037
aF5284.295464
aF5284.542059
aF5286.069521
aF5286.88695
aF5291.81662
aF5293.136166
aF5293.811852
aF5294.066369
aF5294.396938
aF5295.08854
aF5297.407579
aF5298.282447
aF5298.560336
aF5299.080921
aF5300.523253
aF5301.404493
aF5306.98638
aF5307.465492
aF5310.266559
aF5310.866169
aF5312.001778
aF5316.78605
aF5317.49444
aF5318.426814
aF5320.098515
aF5320.769926
aF5321.315742
aF5322.89885
aF5325.143845
aF5325.431684
aF5326.975658
aF5331.747711
aF5335.372635
aF5336.783575
aF5338.639308
aF5340.498065
aF5343.581173
aF5344.524321
aF5345.31147
aF5346.377927
aF5347.971782
aF5349.005334
aF5349.706555
aF5350.205297
aF5351.126857
aF5354.601394
aF5355.636115
aF5358.707408
aF5359.826437
aF5360.149511
aF5361.155263
aF5362.253974
aF5362.575235
aF5363.097099
aF5366.708196
aF5370.70932
aF5371.994848
aF5372.702205
aF5374.821567
aF5375.352518
aF5375.768622
aF5376.13005
aF5378.835215
aF5379.110219
aF5382.927239
aF5384.035411
aF5386.610713
aF5387.813206
aF5388.051083
aF5391.076288
aF5392.572787
aF5393.600197
aF5394.761204
aF5396.110525
aF5397.516616
aF5398.205732
aF5398.702101
aF5399.1752
aF5399.622162
aF5400.146164
aF5402.60504
aF5403.199272
aF5404.704096
aF5406.335975
aF5406.754625
aF5407.34361
aF5407.653006
aF5410.768418
aF5412.44637
aF5424.007403
aF5424.368797
aF5424.729406
aF5425.677824
aF5426.406673
aF5429.104937
aF5431.111593
aF5434.151676
aF5435.123689
aF5436.231481
aF5436.500247
aF5437.388347
aF5438.137887
aF5440.601143
aF5446.022761
aF5448.272401
aF5449.47979
aF5451.65205
aF5452.21866
aF5454.305823
aF5455.99792
aF5457.797894
aF5458.969195
aF5461.736883
aF5462.337536
aF5462.612784
aF5463.318337
aF5463.767589
aF5464.205069
aF5470.758744
aF5471.388309
aF5472.069345
aF5475.758428
aF5477.553591
aF5479.074296
aF5479.684032
aF5481.480095
aF5484.986993
aF5487.508931
aF5490.118976
aF5490.682264
aF5491.532366
aF5492.643935
aF5493.204396
aF5493.969799
aF5494.331392
aF5495.875079
aF5496.137602
aF5499.647681
aF5501.280955
aF5501.944769
aF5503.26561
aF5504.30159
aF5506.919563
aF5507.538772
aF5508.558582
aF5509.993104
aF5512.701347
aF5514.106726
aF5514.375946
aF5514.873106
aF5518.989225
aF5521.452048
aF5521.75308
aF5524.219219
aF5524.956476
aF5527.294542
aF5530.075524
aF5530.69684
aF5535.970908
aF5537.555881
aF5539.2618
aF5539.910639
aF5541.582669
aF5541.93583
aF5542.473429
aF5542.890641
aF5543.90447
aF5545.050449
aF5545.806496
aF5546.12073
aF5547.134707
aF5548.176013
aF5550.681538
aF5555.111819
aF5555.531191
aF5555.834177
aF5556.148467
aF5557.045427
aF5557.308629
aF5557.921444
aF5559.891048
aF5561.202802
aF5570.926601
aF5572.093722
aF5576.204181
aF5579.357544
aF5580.077108
aF5580.392565
aF5580.755059
aF5582.366961
aF5583.76248
aF5590.592868
aF5593.268918
aF5593.612466
aF5595.064394
aF5596.837306
aF5597.476746
aF5599.655001
aF5601.603067
aF5602.627505
aF5604.515166
aF5606.386056
aF5610.680538
aF5612.067646
aF5616.691155
aF5618.014336
aF5620.92162
aF5621.287201
aF5622.083659
aF5625.678431
aF5626.058349
aF5630.296222
aF5631.155668
aF5632.492634
aF5633.294805
aF5639.746033
aF5643.109871
aF5646.453195
aF5647.70634
aF5648.686951
aF5648.990954
aF5650.70512
aF5655.490096
aF5657.181915
aF5657.925206
aF5663.041672
aF5664.620855
aF5665.179556
aF5665.628288
aF5666.419209
aF5667.127984
aF5671.496833
aF5673.836093
aF5677.052542
aF5680.210406
aF5682.845578
aF5683.730633
aF5685.192577
aF5686.875995
aF5687.348449
aF5690.693022
aF5692.159933
aF5693.571007
aF5694.061545
aF5694.434544
aF5695.133213
aF5696.390416
aF5697.086984
aF5698.294609
aF5700.459069
aF5702.032016
aF5702.651464
aF5703.271499
aF5704.376668
aF5707.103137
aF5709.507176
aF5711.086354
aF5711.996529
aF5717.170806
aF5717.523879
aF5719.097307
aF5721.423878
aF5723.532425
aF5725.011923
aF5725.388111
aF5725.894808
aF5727.710012
aF5729.982784
aF5734.164965
aF5736.029422
aF5738.964396
aF5739.520188
aF5741.171037
aF5741.829296
aF5742.083972
aF5742.655924
aF5745.674893
aF5748.324266
aF5748.741222
aF5749.389072
aF5750.269815
aF5752.583354
aF5753.026927
aF5755.717114
aF5763.528456
aF5767.778495
aF5768.181074
aF5768.633272
aF5771.759798
aF5776.167328
aF5777.099293
aF5777.400224
aF5783.53795
aF5789.644814
aF5790.402119
aF5792.430723
aF5792.996048
aF5796.068933
aF5797.319784
aF5798.478775
aF5798.764796
aF5800.829807
aF5802.081595
aF5805.700655
aF5806.587279
aF5808.07565
aF5808.656496
aF5811.844256
aF5812.972562
aF5815.421655
aF5818.449035
aF5819.602612
aF5822.521761
aF5822.792943
aF5828.075657
aF5829.11075
aF5830.827386
aF5832.370428
aF5834.264304
aF5838.949666
aF5839.850998
aF5840.64
aF5843.804948
aF5845.919546
aF5849.767458
aF5852.680944
aF5853.474514
aF5854.120429
aF5860.31081
aF5863.719119
aF5866.812191
aF5868.374378
aF5869.851186
aF5871.182407
aF5872.602399
aF5874.350625
aF5878.276421
aF5881.907559
aF5882.624429
aF5884.033279
aF5885.701097
aF5886.531229
aF5888.263251
aF5891.45079
aF5894.700104
aF5895.281404
aF5895.924028
aF5896.363174
aF5899.844054
aF5902.601574
aF5905.175364
aF5905.570764
aF5907.339951
aF5911.230285
aF5914.385629
aF5918.945499
aF5920.976996
aF5925.404219
aF5926.231866
aF5929.933924
aF5936.874664
aF5937.663235
aF5937.92444
aF5940.565552
aF5942.35795
aF5944.647267
aF5946.235714
aF5948.798653
aF5953.248492
aF5953.58196
aF5955.561293
aF5956.25726
aF5960.782045
aF5964.472956
aF5967.511634
aF5968.319156
aF5969.736805
aF5975.065492
aF5976.200563
aF5983.999554
aF5985.915285
aF5986.266195
aF5987.301034
aF5989.044879
aF5989.742427
aF5990.264779
aF5991.006437
aF5993.492876
aF5995.219797
aF5995.682004
aF5996.629542
aF5998.998413
aF6000.76217
aF6001.203223
aF6001.73306
aF6005.16538
aF6007.071707
aF6008.439369
aF6010.160403
aF6013.677581
aF6014.05566
aF6015.421838
aF6016.359238
aF6017.527619
aF6017.859221
aF6018.995197
aF6020.272248
aF6021.035954
aF6021.410945
aF6023.224636
aF6026.045185
aF6027.247932
aF6029.226527
aF6029.649655
aF6030.444634
aF6032.872513
aF6034.540851
aF6035.192945
aF6036.763611
aF6038.680894
aF6039.226899
aF6042.589816
aF6049.775078
aF6050.981354
aF6052.723191
aF6053.380881
aF6055.593561
aF6056.880556
aF6058.179884
aF6065.779692
aF6066.495775
aF6070.341055
aF6073.103405
aF6077.10623
aF6077.873444
aF6078.42172
aF6079.223155
aF6080.900741
aF6086.700068
aF6087.262239
aF6088.030147
aF6088.824468
aF6090.446805
aF6098.119995
aF6098.803276
aF6099.083282
aF6099.989363
aF6101.161657
aF6101.725299
aF6105.635022
aF6107.533218
aF6111.748122
aF6112.837405
aF6113.465684
aF6113.963466
aF6116.166035
aF6120.556142
aF6123.362088
aF6123.833472
aF6124.48035
aF6125.739064
aF6130.119929
aF6130.456217
aF6133.814129
aF6136.235559
aF6136.702068
aF6137.927168
aF6139.143586
aF6139.650409
aF6141.224257
aF6142.074202
aF6144.757809
aF6150.683097
aF6151.993136
aF6154.067977
aF6154.515407
aF6155.238304
aF6157.087549
aF6161.352783
aF6162.170209
aF6165.123306
aF6167.626663
aF6173.095869
aF6178.431309
aF6180.704936
aF6187.135068
aF6189.144126
aF6200.432855
aF6205.859937
aF6207.749451
aF6208.686951
aF6208.984427
aF6209.951376
aF6213.65484
aF6214.539989
aF6215.939548
aF6220.011596
aF6223.520607
aF6226.369616
aF6234.855274
aF6237.102275
aF6239.713735
aF6240.303448
aF6240.953508
aF6243.120579
aF6245.040985
aF6246.174431
aF6248.405488
aF6250.485123
aF6258.606445
aF6260.217164
aF6261.063971
aF6264.714995
aF6268.200175
aF6271.545663
aF6274.117134
aF6276.163901
aF6277.240161
aF6279.163311
aF6279.977795
aF6284.262202
aF6285.278073
aF6287.255422
aF6287.570019
aF6289.487365
aF6291.191394
aF6292.891193
aF6293.242453
aF6296.873431
aF6297.778852
aF6298.902103
aF6300.916443
aF6301.4125
aF6303.250903
aF6304.242481
aF6307.657424
aF6308.71133
aF6309.160048
aF6310.810115
aF6312.624675
aF6315.774781
aF6317.183397
aF6321.820008
aF6325.00486
aF6326.366601
aF6331.414229
aF6335.405108
aF6335.702065
aF6337.620376
aF6339.305628
aF6339.668592
aF6346.120802
aF6347.105992
aF6348.737373
aF6350.895933
aF6355.273791
aF6355.629962
aF6355.910728
aF6357.02289
aF6357.679181
aF6359.1312
aF6359.674339
aF6362.251095
aF6363.271719
aF6369.575508
aF6370.796002
aF6372.460614
aF6376.930646
aF6377.494975
aF6377.966505
aF6378.760078
aF6379.673103
aF6381.360396
aF6381.759415
aF6386.779653
aF6387.39542
aF6387.864845
aF6388.813122
aF6390.128335
aF6392.368363
aF6394.729845
aF6395.048072
aF6396.950247
aF6399.207531
aF6400.697592
aF6406.445887
aF6408.903751
aF6413.614241
aF6415.537946
aF6418.370414
aF6422.107178
aF6422.897702
aF6424.813432
aF6428.773744
aF6432.957684
aF6436.670214
aF6441.281232
aF6441.900583
aF6446.135927
aF6446.770949
aF6447.993719
aF6450.954302
aF6451.259842
aF6452.058673
aF6455.264689
aF6460.029966
aF6460.474603
aF6471.213617
aF6471.939171
aF6472.429914
aF6475.323342
aF6483.0833
aF6486.225246
aF6487.480759
aF6488.883005
aF6490.737378
aF6493.197488
aF6495.255569
aF6497.49043
aF6498.768339
aF6500.657413
aF6501.991345
aF6503.511916
aF6504.22644
aF6506.986702
aF6522.04242
aF6526.906056
aF6532.223048
aF6536.14454
aF6537.175434
aF6542.049823
aF6545.718868
aF6550.185283
aF6550.54876
aF6551.70562
aF6558.875783
aF6564.444993
aF6565.06877
aF6569.632213
aF6576.123271
aF6577.656281
aF6579.479916
aF6580.22986
aF6584.612923
aF6585.694057
aF6593.462049
aF6594.664531
aF6596.113003
aF6597.377907
aF6598.675206
aF6599.482253
aF6600.730997
aF6601.129285
aF6602.762524
aF6603.620514
aF6604.85343
aF6605.416955
aF6608.445136
aF6617.058979
aF6617.515959
aF6618.164963
aF6619.945897
aF6620.407767
aF6632.083536
aF6638.221029
aF6638.911903
aF6639.740761
aF6646.540749
aF6648.495757
aF6648.957834
aF6650.560296
aF6653.602081
aF6654.368352
aF6655.488955
aF6658.677188
aF6660.675984
aF6663.696428
aF6664.050878
aF6666.358628
aF6672.112894
aF6673.579996
aF6674.696969
aF6678.706868
aF6680.081626
aF6683.367225
aF6684.293258
aF6684.788419
aF6686.215416
aF6692.726335
aF6694.006106
aF6694.496307
aF6697.712496
aF6698.874332
aF6708.840571
aF6710.542891
aF6711.252013
aF6713.969781
aF6715.188149
aF6717.384832
aF6717.677639
aF6721.078925
aF6722.890153
aF6726.310652
aF6726.948001
aF6728.118304
aF6728.758749
aF6729.933252
aF6731.670711
aF6732.649499
aF6733.314495
aF6733.748613
aF6735.126311
aF6738.18018
aF6741.922163
aF6742.498602
aF6742.884245
aF6746.137701
aF6749.316763
aF6751.427406
aF6753.659461
aF6756.163468
aF6757.109172
aF6758.203031
aF6763.331336
aF6766.612079
aF6773.096382
aF6778.313276
aF6780.125504
aF6787.736551
aF6788.84024
aF6791.234859
aF6795.797722
aF6796.782639
aF6797.462906
aF6798.487313
aF6800.465532
aF6804.738129
aF6805.749528
aF6807.318004
aF6808.531565
aF6812.775403
aF6815.611803
aF6819.005745
aF6824.677603
aF6827.249245
aF6829.035562
aF6829.347521
aF6832.89262
aF6834.059086
aF6835.9124
aF6837.497319
aF6839.294455
aF6851.884961
aF6852.354282
aF6854.10935
aF6854.510251
aF6855.315494
aF6855.69027
aF6858.923843
aF6861.269179
aF6863.535106
aF6866.763067
aF6868.451278
aF6874.753192
aF6876.292646
aF6878.406651
aF6879.582453
aF6880.772283
aF6882.811098
aF6887.088119
aF6889.303144
aF6892.249428
aF6907.597092
aF6909.849224
aF6914.712705
aF6916.128859
aF6936.65275
aF6937.663708
aF6942.538016
aF6943.610523
aF6945.49021
aF6951.477124
aF6952.966582
aF6954.65602
aF6960.249543
aF6978.238185
aF6981.083106
aF6992.212068
aF6992.696581
aF6993.037071
aF6993.987303
aF6997.413029
aF7000.803628
aF7002.882909
aF7007.096109
aF7015.317135
aF7018.567528
aF7020.484079
aF7021.283193
aF7023.148631
aF7025.224644
aF7026.461598
aF7028.02281
aF7030.250958
aF7032.930972
aF7033.358768
aF7038.720228
aF7045.79702
aF7053.619563
aF7054.417677
aF7055.901099
aF7058.489446
aF7059.525247
aF7060.041641
aF7060.653804
aF7061.394155
aF7064.451514
aF7068.735373
aF7071.094142
aF7071.479975
aF7072.393907
aF7074.256321
aF7075.333559
aF7084.169001
aF7086.703961
aF7088.8232
aF7089.339466
aF7100.514421
aF7102.590941
aF7107.477291
aF7109.860168
aF7112.918909
aF7113.987857
aF7114.398383
aF7124.560689
aF7125.819469
aF7130.723542
aF7131.35855
aF7132.609987
aF7150.284392
aF7153.58763
aF7158.838154
aF7162.556425
aF7167.202742
aF7170.36071
aF7173.372448
aF7176.185969
aF7176.721272
aF7188.532023
aF7191.132793
aF7200.045414
aF7201.809029
aF7202.190942
aF7202.516112
aF7206.482928
aF7206.979882
aF7208.006314
aF7212.689565
aF7219.151439
aF7220.98086
aF7225.109849
aF7229.938112
aF7230.862255
aF7240.184773
aF7244.696524
aF7246.12765
aF7249.843644
aF7250.589445
aF7253.67597
aF7255.354065
aF7258.176943
aF7265.171889
aF7280.453333
aF7284.903267
aF7285.443168
aF7298.143373
aF7316.004481
aF7324.807294
aF7326.149078
aF7328.285014
aF7329.491578
aF7335.577133
aF7337.78121
aF7341.151478
aF7342.576858
aF7345.399103
aF7346.342736
aF7347.042974
aF7348.053831
aF7350.813537
aF7358.344856
aF7361.347167
aF7365.426051
aF7370.825497
aF7376.877194
aF7377.887294
aF7380.422908
aF7392.979599
aF7393.437669
aF7412.336357
aF7417.790792
aF7418.549859
aF7422.311318
aF7425.29365
aF7428.940503
aF7430.253226
aF7435.367797
aF7436.29646
aF7440.492849
aF7443.875232
aF7444.748861
aF7447.848797
aF7455.208017
aF7456.81825
aF7458.754043
aF7461.874566
aF7469.056521
aF7471.163605
aF7481.354454
aF7483.62556
aF7484.326163
aF7490.109202
aF7495.564089
aF7508.478695
aF7510.407726
aF7518.782355
aF7523.134713
aF7525.507848
aF7528.489172
aF7531.143674
aF7531.814727
aF7537.428637
aF7549.313767
aF7556.223487
aF7557.749443
aF7565.851494
aF7566.529606
aF7571.032553
aF7573.343696
aF7580.345947
aF7580.690427
aF7583.426168
aF7598.205405
aF7607.823001
aF7618.343787
aF7620.077241
aF7623.568225
aF7625.119469
aF7625.705231
aF7627.17483
aF7642.884179
aF7647.379393
aF7651.000546
aF7651.745077
aF7652.320117
aF7654.699741
aF7658.324546
aF7660.023374
aF7660.8903
aF7666.567883
aF7668.960731
aF7670.056955
aF7672.255125
aF7676.219503
aF7678.126655
aF7682.048939
aF7683.018869
aF7685.307498
aF7686.153743
aF7691.770605
aF7701.108035
aF7703.68497
aF7704.816383
aF7710.269186
aF7711.124803
aF7712.404926
aF7713.937717
aF7728.950948
aF7742.56281
aF7761.7133
aF7762.731966
aF7771.946753
aF7773.732521
aF7776.672664
aF7778.492192
aF7781.826259
aF7782.316513
aF7788.934115
aF7793.132528
aF7795.418454
aF7804.141367
aF7804.530006
aF7807.875886
aF7813.476036
aF7813.972856
aF7814.322428
aF7817.769853
aF7834.457746
aF7835.620881
aF7836.459704
aF7841.791042
aF7842.265566
aF7847.539388
aF7848.454642
aF7861.909446
aF7862.345135
aF7864.021806
aF7865.96977
aF7875.462514
aF7886.28298
aF7891.074479
aF7899.622869
aF7900.319926
aF7916.441468
aF7924.991405
aF7937.73347
aF7941.725859
aF7954.592217
aF7956.973426
aF7961.983123
aF7970.253705
aF7972.595942
aF7974.159111
aF7978.973099
aF7981.226161
aF7981.677181
aF7987.973076
aF7991.365442
aF7992.158716
aF7993.680797
aF8024.253002
aF8025.727026
aF8030.200402
aF8032.431249
aF8032.906019
aF8037.217764
aF8046.116362
aF8053.307955
aF8062.630368
aF8068.741874
aF8075.651782
aF8085.218964
aF8086.57379
aF8092.237307
aF8093.623777
aF8094.055396
aF8096.259988
aF8129.405086
aF8137.936246
aF8139.903124
aF8143.137909
aF8143.504512
aF8149.702097
aF8159.727615
aF8162.058607
aF8163.120952
aF8169.786443
aF8186.911262
aF8190.884825
aF8194.394268
aF8205.11097
aF8207.478411
aF8209.446019
aF8214.147185
aF8231.406828
aF8252.393524
aF8253.615523
aF8254.742119
aF8259.510948
aF8275.626506
aF8285.553696
aF8288.414222
aF8292.52712
aF8311.63059
aF8316.603689
aF8320.855356
aF8328.997499
aF8330.449354
aF8333.429398
aF8335.706611
aF8344.180942
aF8356.069227
aF8358.72594
aF8360.491469
aF8363.069556
aF8367.393599
aF8379.226037
aF8383.088347
aF8384.723465
aF8385.727941
aF8387.105285
aF8388.536224
aF8395.724124
aF8401.988977
aF8416.726817
aF8417.998115
aF8421.225355
aF8445.486996
aF8446.511509
aF8454.928504
aF8456.346772
aF8464.236635
aF8464.760956
aF8465.670502
aF8471.825985
aF8487.483312
aF8490.305885
aF8500.679652
aF8501.439762
aF8510.623937
aF8512.598393
aF8513.406237
aF8516.55419
aF8531.450517
aF8532.913658
aF8534.679664
aF8539.79291
aF8554.943992
aF8558.446353
aF8563.162685
aF8564.141995
aF8568.208713
aF8573.120489
aF8575.330448
aF8577.276762
aF8591.838671
aF8593.108838
aF8599.755287
aF8604.016589
aF8605.775647
aF8616.221875
aF8620.459617
aF8621.32247
aF8622.100888
aF8623.801422
aF8629.14144
aF8631.356458
aF8638.362204
aF8639.441589
aF8645.308606
aF8649.148977
aF8665.485459
aF8675.398294
aF8678.407764
aF8686.092461
aF8686.619419
aF8687.847928
aF8691.334622
aF8693.088527
aF8698.595762
aF8701.120796
aF8703.702461
aF8704.860087
aF8707.359106
aF8709.234029
aF8710.414148
aF8714.267774
aF8721.659442
aF8722.457684
aF8723.717666
aF8724.37604
aF8732.423947
aF8734.0233
aF8739.781595
aF8748.030881
aF8749.169625
aF8751.206153
aF8754.00967
aF8758.243376
aF8760.449561
aF8761.685632
aF8766.744973
aF8771.860292
aF8772.805163
aF8773.531948
aF8775.57321
aF8780.698686
aF8784.555745
aF8799.086895
aF8804.589321
aF8810.253946
aF8816.17278
aF8817.742996
aF8829.693786
aF8841.183227
aF8849.315089
aF8852.791584
aF8854.907859
aF8859.017994
aF8859.412259
aF8860.97569
aF8866.714461
aF8868.833307
aF8874.797576
aF8875.232328
aF8889.193845
aF8892.986447
aF8893.539678
aF8899.298381
aF8905.65633
aF8910.856536
aF8920.203032
aF8928.092415
aF8941.660762
aF8949.122626
aF8955.846664
aF8957.985934
aF8962.894111
aF8967.640269
aF8968.948108
aF8969.866623
aF8971.363979
aF8990.893469
aF8995.189197
aF8995.862715
aF9008.456738
aF9009.883126
aF9011.515147
aF9012.526249
aF9016.590249
aF9017.591428
aF9035.919111
aF9037.893765
aF9040.122853
aF9045.353161
aF9048.250039
aF9051.230474
aF9056.081254
aF9062.562998
aF9063.959977
aF9066.111421
aF9068.024773
aF9069.581659
aF9075.393921
aF9090.818586
aF9098.574389
aF9101.082562
aF9106.562758
aF9109.314296
aF9109.794077
aF9132.273873
aF9134.691822
aF9140.555882
aF9153.366334
aF9156.923497
aF9159.032791
aF9165.894985
aF9170.821948
aF9178.779472
aF9180.121639
aF9192.592924
aF9199.684057
aF9203.961599
aF9208.02515
aF9208.581037
aF9215.919619
aF9218.985795
aF9227.511839
aF9232.495905
aF9233.857325
aF9243.760213
aF9249.906661
aF9250.578121
aF9258.77144
aF9266.206929
aF9267.689395
aF9270.150022
aF9271.180104
aF9276.273096
aF9279.70886
aF9286.380393
aF9289.562352
aF9291.530673
aF9294.973966
aF9300.013027
aF9307.895531
aF9310.443888
aF9317.729541
aF9327.246174
aF9334.759323
aF9344.802806
aF9380.643811
aF9383.272149
aF9384.099642
aF9388.930727
aF9399.089059
aF9409.348747
aF9414.088497
aF9417.456971
aF9431.599536
aF9432.282594
aF9436.229201
aF9436.812627
aF9455.202238
aF9467.195287
aF9470.681818
aF9495.497829
aF9497.189003
aF9505.392901
aF9507.652426
aF9508.450631
aF9535.653718
aF9536.406967
aF9540.666095
aF9561.245166
aF9565.558731
aF9567.280449
aF9567.829097
aF9570.402139
aF9588.806513
aF9601.925116
aF9605.805842
aF9608.486529
aF9619.576627
aF9622.066262
aF9641.191743
aF9642.477526
aF9664.69825
aF9674.791341
aF9678.80832
aF9683.732134
aF9684.799798
aF9700.563011
aF9711.763209
aF9713.111863
aF9716.141919
aF9736.212381
aF9739.768676
aF9746.462788
aF9750.13498
aF9753.591926
aF9757.219592
aF9758.636436
aF9773.567411
aF9789.511002
aF9796.200157
aF9800.362802
aF9800.926979
aF9812.697557
aF9814.420948
aF9819.178008
aF9826.449598
aF9831.668974
aF9833.42312
aF9840.917124
aF9849.458145
aF9854.060998
aF9855.742013
aF9864.597102
aF9865.44878
aF9867.890148
aF9868.920479
aF9871.994632
aF9872.629875
aF9873.814982
aF9878.520772
aF9896.048225
aF9898.353147
aF9902.356783
aF9905.885822
aF9906.391733
aF9907.471751
aF9910.074932
aF9914.236419
aF9949.150321
aF9951.088582
aF9952.805344
aF9963.49102
aF9967.042909
aF9970.462392
aF9974.689191
aF9975.94243
aF9985.049933
aF9987.635075
aF9989.937043
aF9991.842496
aF9992.648468
aF9998.959819
aF10011.395224
aF10022.284512
aF10037.11872
aF10039.364012
aF10045.312397
aF10056.20897
aF10068.974981
aF10083.785292
aF10089.134969
aF10111.592224
aF10133.566103
aF10137.386378
aF10140.430849
aF10141.396869
aF10163.37694
aF10175.007857
aF10178.519113
aF10180.593191
aF10188.415534
aF10218.432619
aF10221.000634
aF10223.658391
aF10236.027952
aF10283.116068
aF10308.54413
aF10332.733454
aF10349.04818
aF10419.578661
aF10470.052823
aF10478.033852
aF10498.491925
aF10506.500441
aF10512.204372
aF10529.344289
aF10529.984874
aF10532.558977
aF10533.383293
aF10536.863423
aF10538.319127
aF10540.214166
aF10540.954323
aF10541.56164
aF10542.783485
aF10545.292776
aF10545.894586
aF10549.12874
aF10553.884141
aF10554.83627
aF10555.925441
aF10556.449879
aF10559.100173
aF10563.186481
aF10565.304632
aF10567.180907
aF10576.220054
aF10576.357006
aF10578.133786
aF10578.459059
aF10579.482577
aF10581.707843
aF10585.021609
aF10586.922384
aF10587.096948
aF10591.304152
aF10591.34825
aF10592.489076
aF10594.776744
aF10595.257662
aF10596.905333
aF10600.591902
aF10601.337753
aF10605.458853
aF10607.104972
aF10607.80424
aF10608.443488
aF10609.954846
aF10613.383905
aF10613.989794
aF10615.002842
aF10619.46621
aF10622.543499
aF10624.885607
aF10629.84
aF10634.286785
aF10637.375953
aF10638.12065
aF10639.889482
aF10640.322637
aF10646.516592
aF10649.65269
aF10654.490997
aF10658.582625
aF10659.522593
aF10660.854823
aF10661.018532
aF10663.173483
aF10664.232572
aF10668.492096
aF10673.565763
aF10678.364007
aF10678.627148
aF10681.771809
aF10683.035169
aF10683.4046
aF10690.173149
aF10700.355411
aF10700.985245
aF10703.645245
aF10707.52849
aF10712.812817
aF10722.229087
aF10723.924195
aF10725.418815
aF10726.926282
aF10728.612972
aF10732.149705
aF10732.243948
aF10733.875611
aF10740.460999
aF10741.60336
aF10741.814111
aF10744.366851
aF10749.428352
aF10749.489611
aF10751.863755
aF10752.470643
aF10754.330231
aF10754.87561
aF10759.042747
aF10764.381532
aF10770.41528
aF10772.4343
aF10773.367992
aF10774.336101
aF10776.980185
aF10778.628735
aF10779.096155
aF10785.139666
aF10785.910666
aF10786.364986
aF10788.55019
aF10794.063052
aF10800.048224
aF10800.158365
aF10802.53277
aF10803.840387
aF10803.916862
aF10804.523098
aF10807.023372
aF10807.344181
aF10812.279505
aF10812.896738
aF10813.394154
aF10813.572874
aF10816.49652
aF10817.881618
aF10819.528303
aF10820.079612
aF10829.458363
aF10832.713157
aF10834.173328
aF10834.612466
aF10835.257499
aF10835.30741
aF10843.464686
aF10853.458312
aF10857.355293
aF10861.076896
aF10861.801438
aF10862.503297
aF10864.595131
aF10866.94929
aF10867.344781
aF10867.884788
aF10869.716559
aF10869.963568
aF10874.573107
aF10880.941262
aF10882.573439
aF10883.227988
aF10883.895649
aF10890.28386
aF10892.36125
aF10894.873257
aF10895.855727
aF10901.189136
aF10911.326651
aF10913.579107
aF10923.44392
aF10923.719875
aF10924.485986
aF10927.198078
aF10931.730548
aF10934.174406
aF10938.909199
aF10941.624506
aF10942.245935
aF10942.435528
aF10947.87519
aF10948.151062
aF10950.727016
aF10951.434296
aF10954.293978
aF10955.640754
aF10962.883914
aF10963.97909
aF10964.033319
aF10964.822172
aF10965.249955
aF10973.808786
aF10974.38593
aF10982.383281
aF10982.908961
aF10982.982804
aF10983.203012
aF10983.632593
aF10990.212274
a.