(lp0
cnumpy.core.multiarray
scalar
p1
(cnumpy
dtype
p2
(S'f8'
p3
I0
I1
tp4
Rp5
(I3
S'<'
p6
NNNI-1
I-1
I0
tp7
bS'\xf1\xf0\xdb\xf2\x05P\xa4?'
p8
tp9
Rp10
ag1
(g5
S'KK\xcdn\xfa\xd2\x9d?'
p11
tp12
Rp13
a.