(lp0
cnumpy.core.multiarray
scalar
p1
(cnumpy
dtype
p2
(S'f8'
p3
I0
I1
tp4
Rp5
(I3
S'<'
p6
NNNI-1
I-1
I0
tp7
bS"\xb7m'\xc2\xb77\x85?"
p8
tp9
Rp10
ag1
(g5
S'\x00\x00\x80l\xf5\xe4f?'
p11
tp12
Rp13
ag1
(g5
S'\x00\x00\x80l\xf5\xe4f?'
p14
tp15
Rp16
a.