(lp0
cnumpy.core.multiarray
scalar
p1
(cnumpy
dtype
p2
(S'f8'
p3
I0
I1
tp4
Rp5
(I3
S'<'
p6
NNNI-1
I-1
I0
tp7
bS'\xc3\xf5l\xb4S\xb4\x94?'
p8
tp9
Rp10
ag1
(g5
S'\xf6(L\xbb\xb8\x0ev?'
p11
tp12
Rp13
ag1
(g5
S'\x00\x00P\xa1\x0e$u?'
p14
tp15
Rp16
ag1
(g5
S'\x00\x00P\xa1\x0e$u?'
p17
tp18
Rp19
a.