(lp0
cnumpy.core.multiarray
scalar
p1
(cnumpy
dtype
p2
(S'f8'
p3
I0
I1
tp4
Rp5
(I3
S'<'
p6
NNNI-1
I-1
I0
tp7
bS'\r\xc1\xba\xa7\xeaa\x89?'
p8
tp9
Rp10
ag1
(g5
S'?\xc5\x95\xc3\xbb\xf6y?'
p11
tp12
Rp13
ag1
(g5
S'\x8aK\x16\xe8\xf8\xa5q?'
p14
tp15
Rp16
ag1
(g5
S'\xde\xa78g\xb8zJ?'
p17
tp18
Rp19
ag1
(g5
S'\xde\xa78g\xb8zJ?'
p20
tp21
Rp22
a.