(lp0
cnumpy.core.multiarray
scalar
p1
(cnumpy
dtype
p2
(S'f8'
p3
I0
I1
tp4
Rp5
(I3
S'<'
p6
NNNI-1
I-1
I0
tp7
bS'9\x8e\xf8\x87\xdb\xa3\x94?'
p8
tp9
Rp10
ag1
(g5
S'\x91\xcf\x92\x00\xd5\x9e\x83?'
p11
tp12
Rp13
a.