(lp0
cnumpy.core.multiarray
scalar
p1
(cnumpy
dtype
p2
(S'f8'
p3
I0
I1
tp4
Rp5
(I3
S'<'
p6
NNNI-1
I-1
I0
tp7
bS'\xa6\xa5\x05\xc6\x00\x16n?'
p8
tp9
Rp10
ag1
(g5
S'\xb0\xaf/\x1d \xfaX?'
p11
tp12
Rp13
ag1
(g5
S"##\xe3\x93>'X?"
p14
tp15
Rp16
ag1
(g5
S"##\xe3\x93>'X?"
p17
tp18
Rp19
a.