(lp0
cnumpy.core.multiarray
scalar
p1
(cnumpy
dtype
p2
(S'f8'
p3
I0
I1
tp4
Rp5
(I3
S'<'
p6
NNNI-1
I-1
I0
tp7
bS'\x8d\xf5a7\x02\xf9u?'
p8
tp9
Rp10
ag1
(g5
S'\n^\x8e%\x9f\xe2P?'
p11
tp12
Rp13
ag1
(g5
S'\n^\x8e%\x9f\xe2P?'
p14
tp15
Rp16
a.