(lp0
cnumpy.core.multiarray
scalar
p1
(cnumpy
dtype
p2
(S'f8'
p3
I0
I1
tp4
Rp5
(I3
S'<'
p6
NNNI-1
I-1
I0
tp7
bS'\xf5\xa6\x0fb\xd8\xa5z?'
p8
tp9
Rp10
ag1
(g5
S'\x8f<\x82\xd2\xe8\xf0s?'
p11
tp12
Rp13
a.