(lp0
cnumpy.core.multiarray
scalar
p1
(cnumpy
dtype
p2
(S'f8'
p3
I0
I1
tp4
Rp5
(I3
S'<'
p6
NNNI-1
I-1
I0
tp7
bS'\x9e\x8d\xb2\x0b\xd6\xfdz?'
p8
tp9
Rp10
ag1
(g5
S'W\x10\xdf\x83\xdb\xbas?'
p11
tp12
Rp13
a.