(lp0
cnumpy.core.multiarray
scalar
p1
(cnumpy
dtype
p2
(S'f8'
p3
I0
I1
tp4
Rp5
(I3
S'<'
p6
NNNI-1
I-1
I0
tp7
bS'\x04?\x80\xf5\x0e%w?'
p8
tp9
Rp10
ag1
(g5
S'7rc\xbc\xc6MW?'
p11
tp12
Rp13
ag1
(g5
S'\x8e\xdc\xc8\xfeZ\x16V?'
p14
tp15
Rp16
ag1
(g5
S'[\xa9\xd5u\x14\x18V?'
p17
tp18
Rp19
ag1
(g5
S'\xfc\xc0\x8f\x7f-\x18V?'
p20
tp21
Rp22
ag1
(g5
S';\xb1S\xc3.\x18V?'
p23
tp24
Rp25
a.