(lp0
cnumpy.core.multiarray
scalar
p1
(cnumpy
dtype
p2
(S'f8'
p3
I0
I1
tp4
Rp5
(I3
S'<'
p6
NNNI-1
I-1
I0
tp7
bS'\xd9\xb2u\x10\xb2E\x80?'
p8
tp9
Rp10
ag1
(g5
S'\xa1B\xa5\xf6\xd1\xb1`?'
p11
tp12
Rp13
ag1
(g5
S'\xa1B\xa5\xf6\xd1\xb1`?'
p14
tp15
Rp16
a.