(lp0
cnumpy.core.multiarray
scalar
p1
(cnumpy
dtype
p2
(S'f8'
p3
I0
I1
tp4
Rp5
(I3
S'<'
p6
NNNI-1
I-1
I0
tp7
bS'\xc5WD\xc4\xe6sl?'
p8
tp9
Rp10
ag1
(g5
S'\xa1\x0ej\xe4\xa8NZ?'
p11
tp12
Rp13
ag1
(g5
S'\x00\x00Pb\xe2\xd1V?'
p14
tp15
Rp16
ag1
(g5
S'\x00\x00Pb\xe2\xd1V?'
p17
tp18
Rp19
a.