(lp0
I58
aI89
aI119
aI150
aI181
aI212
aI244
aI276
aI310
aI344
aI378
aI414
aI451
aI489
aI528
aI568
aI609
aI650
aI695
aI740
aI786
aI834
aI883
aI934
aI987
aI1041
aI1096
aI1154
aI1213
aI1274
aI1338
aI1403
aI1470
aI1540
aI1612
aI1687
aI1763
aI1843
aI1926
aI2012
a.