(dp0
S'Slits_computed_chi_squares'
p1
(lp2
F0.00027
aF43.86509
aF0.5088
aF0.00783
aF0.00189
aF0.00105
aF0.07665
aF0.00224
aF0.00755
aF0.00139
aF0.05138
aF0.00211
aF0.0256
aF0.00031
aF0.03663
aF0.00043
aF0.0006
aF0.00791
aF0.0007
aF1e-05
aF0.00432
aF0.00033
aF0.00044
aF8e-05
aF0.00034
aF4e-05
aF0.00013
aF0.00912
aF8e-05
aF6e-05
aF0.0008
aF8e-05
aF4e-05
aF0.00995
aF0.12098
aF3e-05
aF2e-05
aF0.0003
aF0.00036
aF0.00025
aF0.00049
aF0.00013
aF8e-05
aF0.39575
aF0.00021
aF1.85719
aF0.00085
aF0.00627
aF0.00029
aF0.00098
aF0.03165
aF0.00046
aF0.01825
aF0.90781
aF0.00127
aF3e-05
aF7e-05
aF0.00035
aF1e-05
aF0.00022
aF0.00112
aF1e-05
aF0.00279
aF0.00016
aF0.0011
aF0.00019
aF3e-05
aF0.01502
aF0.00016
aF6e-05
aF0.00073
aF0.0001
aF6e-05
aF7e-05
aF0.00024
aF0.00589
aF0.00239
aF0.00219
aF0.0002
aF9e-05
aF0.0001
aF0.01529
aF0.05437
aF0.04882
aF0.00056
aF0.00211
aF6e-05
aF0.00032
aF0.00035
aF2e-05
aF0.0057
aF0.00903
aF0.00102
aF15.32316
aF0.00302
aF0.03851
aF0.0022
aF0.00019
aF0.00048
aF1.09988
aF0.00512
aF0.00579
aF0.00165
aF0.50468
aF0.14186
aF0.02985
aF1.15252
aF0.05855
aF0.01334
aF0.1239
aF0.03878
aF0.00087
aF0.03646
aF0.0001
aF0.00131
aF2e-05
aF0.06403
aF0.00073
aF0.00028
aF0.00014
aF0.00639
aF0.00091
aF0.00174
aF6e-05
aF0.00317
aF0.0
aF0.00053
aF0.00242
aF0.00023
aF0.00167
aF0.01829
aF0.00025
aF0.48888
aF0.00866
aF3e-05
aF0.00801
aF0.00284
aF0.00159
aF0.00159
aF0.00276
aF0.01525
aF0.00743
aF0.00011
aF4e-05
aF0.00036
aF0.0007
aF0.55716
aF0.00168
aF0.03128
aF0.01828
aF0.09322
aF0.02413
aF0.10714
aF3e-05
aF0.13769
aF0.00098
aF0.0054
aF0.00045
aF4e-05
aF7e-05
aF0.02075
aF7.74387
aF0.20924
aF0.00285
aF0.00073
aF0.0005
aF0.00132
aF0.0213
aF0.04607
aF0.00323
aF0.00049
aF0.00045
aF0.0001
aF0.00016
aF4e-05
aF4e-05
aF0.00097
aF0.00217
aF1.69144
aF0.54749
aF0.00052
aF0.00023
aF0.0091
aF0.0
aF8e-05
aF7e-05
aF0.00771
aF9e-05
aF0.00016
aF5e-05
aF0.17453
aF0.00015
aF4e-05
aF0.00015
aF0.00019
aF0.00038
aF0.03081
aF0.00194
aF0.01974
aF0.00532
aF1.07984
aF0.00737
aF0.33423
aF0.02051
aF0.02565
aF0.22619
aF0.51579
aF7e-05
aF0.00107
aF0.00107
aF0.0
aF0.00646
aF0.0022
aF0.00029
aF0.00017
aF0.00015
aF0.0002
aF0.00045
aF0.00036
aF0.00102
aF0.00021
aF0.00092
aF0.0019
aF0.44055
aF0.01993
aF0.20551
aF0.00104
aF0.00431
aF0.00564
aF0.00061
aF9e-05
aF0.00057
aF0.00269
aF0.93945
aF0.01066
aF0.02278
aF0.00234
aF0.00392
aF0.17097
aF0.06153
aF0.18181
aF0.26411
aF0.01718
aF0.22625
aF0.00151
aF0.09929
aF0.00024
aF0.00066
aF0.00055
aF0.00017
aF0.00049
aF0.00029
aF0.00479
aF0.0001
aF0.05449
aF0.00083
aF0.00013
aF2.07427
aF0.01063
aF0.01008
aF0.01131
aF0.00189
aF0.36861
aF0.04078
aF1.70071
aF0.00762
aF1.14224
aF0.02337
aF0.01392
aF0.10712
aF0.96572
aF0.00058
aF2e-05
aF0.23993
aF0.00269
aF0.00093
aF1.83331
aF0.00098
aF0.00016
aF0.00044
aF0.02715
aF0.0006
aF7e-05
aF0.00041
aF0.00027
aF0.08406
aF0.00067
aF0.0021
aF0.003
aF0.00074
aF0.00102
aF0.00035
aF0.15029
aF0.00465
aF5e-05
aF0.03799
aF0.00028
aF0.0003
aF0.00036
aF0.00344
aF0.00655
aF0.00065
aF0.00239
aF0.01165
aF0.0098
aF1e-05
aF0.00244
aF0.06725
aF0.00023
aF0.06109
aF1.72573
aF0.00021
aF0.00134
aF0.00232
aF0.00243
aF0.0
aF0.04791
aF3.17412
aF0.00566
aF0.17072
aF0.03415
aF0.06213
aF0.80547
aF0.36442
aF4.20562
aF0.00159
aF0.02122
aF0.00032
aF0.05472
aF0.0003
aF0.00253
aF0.01812
aF0.07684
aF0.00089
aF0.05179
aF0.00014
aF0.00035
aF0.05784
aF0.00616
aF0.00262
aF0.59361
aF0.06912
aF0.00136
aF0.00083
aF0.59361
aF0.06912
aF0.00136
aF0.00083
aF0.15481
aF0.01507
aF0.00019
aF0.00076
aF0.00014
aF3e-05
aF0.00715
aF0.00137
aF0.00074
aF7e-05
aF0.00351
aF3e-05
aF0.0
aF0.00043
aF0.0
aF3e-05
aF4e-05
aF0.00016
aF0.00025
aF6e-05
aF0.00023
aF0.15445
aF0.0005
aF0.17686
aF0.00599
aF1e-05
aF0.01564
aF0.00015
aF5e-05
aF0.00353
aF0.00073
aF0.00011
aF0.03928
aF0.04317
aF0.14884
aF0.15036
aF2e-05
aF0.00014
aF0.00332
aF0.01011
aF0.00025
aF0.00737
aF0.00016
aF0.00314
aF0.00091
aF6e-05
aF0.1466
aF0.00026
aF0.10801
aF0.00586
aF0.63739
aF0.00026
aF0.0012
aF4e-05
aF1e-05
aF3e-05
aF0.00032
aF0.0
aF0.09194
aF0.00322
aF0.52659
aF0.14272
aF0.00055
aF0.00845
aF2e-05
aF0.00281
aF0.00102
aF0.00405
aF0.00118
aF7e-05
aF0.00203
aF0.00048
aF1e-05
aF0.0003
aF0.0
aF0.32041
aF0.07416
aF0.00044
aF0.00374
aF0.01419
aF0.00643
aF0.54511
aF0.00012
aF0.15928
aF0.00045
aF0.0058
aF0.0019
aF0.10414
aF0.0009
aF1e-05
aF7e-05
aF0.0135
aF0.66559
aF0.00045
aF0.00033
aF3.7714
aF0.12626
aF0.37464
aF0.00048
aF0.00057
aF0.00028
aF0.00205
aF6e-05
aF4e-05
aF0.00015
aF0.00016
aF1e-05
aF0.14843
aF0.00026
aF0.00098
aF0.03066
aF0.00033
aF0.0206
aF0.01752
aF0.00411
aF1.12988
aF0.21427
aF0.00105
aF0.00994
aF0.11039
aF0.08763
aF0.00342
aF7e-05
aF7e-05
aF2.32084
aF0.04037
aF0.0026
aF0.07211
aF0.16821
aF0.00039
aF0.40113
aF0.00392
aF5.42562
aF0.00277
aF0.00393
aF0.00148
aF0.0
aF0.00039
aF0.01069
aF0.09798
aF0.00112
aF4.52269
aF0.00052
aF0.58681
aF0.03493
aF0.00098
aF0.07134
aF0.00205
aF0.32397
aF0.70706
aF0.008
aF1e-05
aF2e-05
aF0.35462
aF0.01347
aF0.00066
aF0.00019
aF6e-05
aF2e-05
aF0.0001
aF0.13192
aF0.00311
aF51.30962
aF0.00144
aF0.06909
aF0.02911
aF0.12401
aF0.0034
aF2e-05
aF0.0054
aF0.0006
aF0.00462
aF0.00023
aF0.00024
aF0.00797
aF0.00018
aF0.01472
aF0.00032
aF4e-05
aF0.0001
aF0.00117
aF10.07629
aF0.00022
aF0.33341
aF0.50602
aF5e-05
aF0.00013
aF6e-05
aF0.0
aF0.01871
aF0.02752
aF0.00568
aF0.00073
aF0.004
aF0.00093
aF0.0001
aF0.00131
aF0.00314
aF0.00012
aF0.00343
aF3e-05
aF0.00113
aF0.03696
aF0.02162
aF0.23562
aF0.00014
aF0.00588
aF0.05742
aF0.00036
aF0.00454
aF0.00404
aF0.00041
aF9.37409
aF0.01776
aF0.19603
aF0.01089
aF0.0759
aF0.65741
aF0.0002
aF0.00062
aF3.49072
aF0.00549
aF0.0008
aF6.04933
aF0.00156
aF0.30658
aF0.00299
aF0.35529
aF0.10706
aF0.00158
aF0.00065
aF0.30038
aF0.01106
aF0.0006
aF0.17164
aF0.0032
aF0.00033
aF0.00019
aF0.00022
aF0.06527
aF5.18933
aF6.26996
aF7.05315
aF0.18163
aF3e-05
aF0.0351
aF0.00025
aF0.00013
aF0.00034
aF0.00023
aF0.00205
aF0.0021
aF0.00033
aF0.00765
aF0.47483
aF0.00391
aF0.07335
aF0.20053
aF0.02478
aF0.0063
aF0.01187
aF0.00335
aF1.7011
aF0.11698
aF0.48002
aF0.08433
aF4.00792
aF0.00887
aF0.0001
aF0.9166
aF7e-05
aF0.00052
aF0.00015
aF0.00033
aF0.0035
aF0.00499
aF0.02644
aF0.0029
aF0.00484
aF6e-05
aF0.00013
aF0.07642
aF0.00032
aF0.0412
aF0.00108
aF0.0006
aF0.00124
aF0.01361
aF0.00099
aF1e-05
aF13.27426
aF0.06558
aF0.22341
aF0.18419
aF0.03082
aF0.00257
aF0.00389
aF0.00277
aF0.31043
aF0.00177
aF0.03756
aF0.00723
aF0.0012
aF0.00176
aF0.00017
aF0.00015
aF0.01449
aF0.0028
aF0.32181
aF0.02708
aF0.02327
aF0.17378
aF0.06289
aF7e-05
aF0.00905
aF0.00127
aF0.01762
aF0.00132
aF0.0057
aF0.01247
aF0.21972
aF1.62324
aF0.0014
aF4.14826
aF0.01221
aF0.00863
aF0.00718
aF0.00052
aF0.00477
aF0.00443
aF0.01633
aF0.00109
aF0.00057
aF2.15127
aF0.06798
aF0.07939
aF0.00324
aF0.0004
aF0.00228
aF0.00019
aF0.00111
aF0.25621
aF1e-05
aF0.134
aF0.01317
aF0.01369
aF0.0001
aF0.00246
aF9e-05
aF0.00617
aF7e-05
aF0.00941
aF0.00746
aF0.26699
aF0.00199
aF0.00344
aF2.14261
aF0.12515
aF6e-05
aF0.00028
aF0.07013
aF0.00045
aF0.0006
aF0.00028
aF0.19669
aF0.27954
aF1.55669
aF0.14501
aF10.33289
aF0.54547
aF0.0368
aF0.0033
aF2.68056
aF0.16514
aF0.06629
aF1.72561
aF0.00168
aF6.2962
aF0.25514
aF0.12571
aF0.51
aF0.00047
aF9e-05
aF0.46091
aF0.13838
aF0.00615
aF0.00583
aF0.0095
aF0.12589
aF0.0159
aF0.08583
aF0.07061
aF0.58553
aF0.13162
aF0.02387
aF0.11809
aF0.00656
aF0.00031
aF0.00217
aF0.00587
aF0.0004
aF0.0018
aF0.00241
aF0.01177
aF0.01347
aF0.65327
aF0.01953
aF0.00066
aF0.75631
aF0.0203
aF0.01649
aF0.00391
aF0.00016
aF0.02971
aF0.00197
aF1.25473
aF0.0017
aF0.00353
aF0.00466
aF0.00403
aF0.00083
aF2.83607
aF2e-05
aF0.00312
aF0.06667
aF1e-05
aF0.0046
aF0.00236
aF0.00371
aF0.00406
aF0.00057
aF6e-05
aF0.0005
aF0.07069
aF0.001
aF0.02093
aF0.08508
aF0.11675
aF2.72132
aF0.01279
aF0.00058
aF9e-05
aF7e-05
aF9e-05
aF0.00099
aF0.00045
aF0.00614
aF0.00138
aF1.47855
aF0.00206
aF0.02073
aF0.00883
aF0.01513
aF0.01667
aF0.26275
aF0.27613
aF0.02047
aF0.00188
aF0.48559
aF0.2241
aF7e-05
aF0.08743
aF10.64339
aF3.87739
aF0.02488
aF0.4398
aF0.00055
aF0.14442
aF1.06804
aF0.00272
aF0.7774
aF0.00937
aF4e-05
aF0.01899
aF0.02534
aF0.01702
aF0.05058
aF0.00605
aF0.10238
aF0.00594
aF0.0549
aF0.00025
aF0.00168
aF0.58011
aF0.14212
aF0.00066
aF1.22807
aF0.02844
aF0.00141
aF0.02334
aF0.08759
aF0.13791
aF0.04037
aF0.00053
aF0.09965
aF9.71817
aF0.0187
aF0.00028
aF0.08989
aF0.02003
aF0.00135
aF0.07712
aF0.00045
aF0.00031
aF2e-05
aF0.00021
aF0.00081
aF7e-05
aF6e-05
aF0.00029
aF0.13936
aF2e-05
aF0.00027
aF0.00029
aF0.00016
aF0.00032
aF0.00107
aF0.00115
aF0.15308
aF0.00707
aF0.9365
aF0.00391
aF0.01254
aF0.06095
aF0.12244
aF0.04277
aF0.01551
aF2.23312
aF0.02084
aF0.28341
aF0.19801
aF14.45208
aF0.97068
aF0.06908
aF0.08039
aF22.99349
aF0.00268
aF0.0009
aF0.09704
aF9.60595
aF0.0009
aF0.33707
aF0.00481
aF0.97848
aF0.05029
aF0.00298
aF0.00292
aF0.57682
aF0.1552
aF0.00238
aF0.00834
aF0.02977
aF0.02248
aF0.01585
aF0.53948
aF0.07632
aF0.00462
aF0.00501
aF0.56875
aF0.0496
aF2.3755
aF1.22512
aF0.42175
aF1.83285
aF0.02274
aF0.01756
aF0.00746
aF5.71639
aF1.13933
aF0.02912
aF0.09042
aF0.64847
aF0.00215
aF4.42629
aF0.01035
aF0.00839
aF0.06581
aF0.49207
aF1.5416
aF0.01447
aF0.15552
aF0.00039
aF0.04988
aF6e-05
aF0.01966
aF0.0001
aF0.00535
aF0.00148
aF0.00154
aF0.00049
aF0.00445
aF0.01104
aF0.0162
aF0.0007
aF18.77617
aF1.10457
aF0.00145
aF0.09044
aF0.06514
aF1.77077
aF8.70775
aF0.01836
aF0.01766
aF0.00029
aF0.00082
aF0.30101
aF0.00859
aF0.06772
aF0.00544
aF0.00596
aF0.10675
aF0.00233
aF0.08755
aF0.70064
aF0.07859
aF24.70611
aF0.0019
aF4.98876
aF0.00291
aF15.26968
aF0.01465
aF0.08152
aF0.00099
aF0.01358
aF0.11123
aF0.00049
aF2.04369
aF0.00071
aF0.0041
aF0.0039
aF0.04163
aF0.00066
aF0.00015
aF0.00018
aF0.15968
aF0.00037
aF0.00155
aF0.00041
aF1.63196
aF86.02883
aF0.71448
aF0.00031
aF0.00271
aF0.02668
aF0.49017
aF0.00191
aF0.45158
aF43.76998
aF0.14156
aF0.00264
aF0.40319
aF0.00112
aF6e-05
aF0.00012
aF0.17944
aF0.21675
aF0.00168
aF0.00215
aF0.0018
aF0.00126
aF0.01855
aF0.01602
aF0.84983
aF7e-05
aF0.0006
aF0.59823
aF0.09178
aF0.00128
aF0.00853
aF0.02575
aF5.99212
aF0.19796
aF9.95159
aF0.00102
aF5e-05
aF0.31486
aF0.00127
aF0.00018
aF0.00081
aF0.00193
aF0.00085
aF0.00135
aF0.00083
aF0.05728
aF0.61913
aF0.0049
aF0.00352
aF0.00048
aF0.01324
aF0.0228
aF0.02092
aF0.17581
aF0.06541
aF0.25335
aF0.0065
aF0.0206
aF0.02151
aF0.00099
aF0.00041
aF0.00066
aF0.00268
aF3.20579
aF0.74648
aF3.66179
aF3.64289
aF0.01197
aF0.00185
aF2.30538
aF0.00926
aF0.00073
aF0.00123
aF0.08615
aF0.00959
aF0.00058
aF0.03627
aF0.10482
aF0.0002
aF7e-05
aF0.04739
aF0.17843
aF1.88443
aF0.00819
aF0.0023
aF0.11283
aF0.89819
aF1.3502
aF0.03535
aF0.05739
aF0.00764
aF0.12825
aF0.003
aF11.06653
aF0.01443
aF0.01893
aF0.86625
aF0.07275
aF0.60698
aF0.08579
aF17.4418
aF0.02956
aF0.16886
aF2.97344
aF0.00132
aF0.00082
aF0.00116
aF0.0006
aF0.00045
aF0.00604
aF0.00086
aF7e-05
aF0.00447
aF0.00051
aF0.0153
aF0.01149
aF0.00507
aF0.00244
aF0.7997
aF0.01112
aF0.00124
aF0.0085
aF0.00016
aF1.71833
aF0.00183
aF0.00822
aF0.09493
aF0.00669
aF0.00669
aF0.01088
aF0.03926
aF0.00146
aF0.0097
aF0.0006
aF0.00462
aF0.13241
aF0.00107
aF0.00014
aF0.00037
aF0.01547
aF0.00148
aF0.00386
aF0.00019
aF0.00076
aF0.01445
aF0.03139
aF0.05984
aF0.0009
aF0.01299
aF0.00034
aF0.08518
aF0.00337
aF0.00047
aF0.01342
aF0.00094
aF0.00399
aF0.00321
aF1.98839
aF19.98726
aF0.00546
aF0.00825
aF0.0003
aF1.38986
aF0.00062
aF0.00025
aF0.00018
aF0.01577
aF0.6617
aF0.00371
aF0.51322
aF0.00037
aF0.00081
aF0.00057
aF0.45808
aF0.04585
aF0.00464
aF0.62967
aF161.8303
aF0.0119
aF0.05498
aF0.03477
aF0.00034
aF0.00581
aF1.00245
aF0.01002
aF8e-05
aF0.03181
aF0.00206
aF0.00169
aF6e-05
aF6e-05
aF0.01246
aF0.00019
aF0.015
aF0.00026
aF0.00205
aF0.00092
aF0.00065
aF0.01044
aF0.00133
aF0.0005
aF0.00017
aF0.00015
aF0.00014
aF0.01594
aF0.11772
aF0.00121
aF0.01404
aF0.09786
aF0.05936
aF0.7738
aF0.00356
aF0.00225
aF0.01071
aF0.01384
aF0.00063
aF0.00111
aF1e-05
aF0.00123
aF0.00091
aF0.0033
aF0.01596
aF7.50846
aF0.00121
aF5.70353
aF0.0081
aF0.00088
aF0.00177
aF0.00075
aF0.00104
aF0.15608
aF4e-05
aF0.08304
aF0.00039
aF0.0021
aF0.00022
aF0.09899
aF7e-05
aF0.0712
aF0.00105
aF0.00129
aF0.01397
aF0.03454
aF0.0002
aF0.00208
aF0.00096
aF0.00889
aF0.06694
aF0.01334
aF0.00381
aF0.06311
aF0.00029
aF0.00012
aF0.7853
aF0.00219
aF0.25635
aF0.00181
aF1e-05
aF0.36707
aF0.00029
aF0.00019
aF0.00012
aF0.0
aF0.7853
aF0.00219
aF0.25635
aF0.00181
aF1e-05
aF0.36707
aF0.14453
aF0.69415
aF0.04122
aF0.08086
aF0.00173
aF2.1468
aF0.36203
aF0.11734
aF0.0206
aF0.00171
aF0.12142
aF0.00816
aF0.01262
aF0.00077
aF0.39529
aF0.00865
aF0.00381
aF0.29055
aF0.06292
aF0.02526
aF0.19631
aF0.02446
aF5.14544
aF0.00853
aF0.07803
aF1.37821
aF0.00718
aF0.00373
aF0.00034
aF0.00364
aF0.00056
aF0.00093
aF0.00689
aF0.0261
aF0.00945
aF0.02449
aF0.0166
aF0.00037
aF0.00607
aF8e-05
aF0.00035
aF0.01142
aF0.61244
aF0.05402
aF0.00184
aF0.00268
aF0.0074
aF0.00234
aF0.00843
aF0.00287
aF0.00383
aF0.00638
aF0.00692
aF2.68323
aF0.00026
aF0.00087
aF0.01687
aF0.0029
aF0.00042
aF0.02856
aF0.00349
aF0.01049
aF0.00049
aF0.00012
aF0.00445
aF0.00185
aF0.06613
aF0.01136
aF0.0008
aF0.00117
aF0.00259
aF0.00968
aF0.38613
aF0.00097
aF0.02793
aF0.01717
aF0.00793
aF0.02413
aF0.16506
aF0.04414
aF0.00825
aF0.00391
aF4e-05
aF0.02943
aF0.00024
aF0.11353
aF0.07907
aF0.39058
aF2.2457
aF0.02683
aF0.042
aF0.01166
aF0.00119
aF0.27651
aF0.01857
aF5e-05
aF0.00058
aF0.08059
aF0.00536
aF0.00111
aF0.00595
aF0.00058
aF0.00218
aF0.77557
aF0.20845
aF0.00423
aF0.04718
aF0.00213
aF0.00032
aF0.04154
aF4.05293
aF0.00315
aF0.00134
aF0.00642
aF0.04183
aF0.00143
aF1e-05
aF2e-05
aF0.00071
aF0.00011
aF4e-05
aF2e-05
aF2e-05
aF1.43871
aF0.01142
aF0.00453
aF0.48556
aF0.08432
aF0.0248
aF0.00036
aF0.00204
aF0.19202
aF0.00435
aF0.00033
aF0.00035
aF0.0007
aF0.01173
aF0.29044
aF0.00191
aF0.00146
aF0.13176
aF0.7408
aF0.00558
aF1.63806
aF0.05552
aF0.82943
aF0.11647
aF0.01077
aF1.63806
aF0.05552
aF0.82943
aF0.11647
aF0.01077
aF0.00912
aF0.34243
aF0.00401
aF0.16116
aF0.00748
aF8.76478
aF0.02076
aF0.06032
aF0.0023
aF0.17001
aF0.00539
aF0.02151
aF0.01935
aF2.65035
aF0.00215
aF0.00478
aF0.02423
aF0.82222
aF0.01083
aF0.00089
aF0.00517
aF0.00038
aF0.07249
aF0.00531
aF0.006
aF0.03156
aF0.01071
aF0.00095
aF0.03625
aF0.00048
aF0.00245
aF0.01721
aF0.0106
aF0.07549
aF0.06151
aF0.02038
aF0.00409
aF0.00389
aF1.04982
aF0.05732
aF0.00239
aF0.00556
aF0.04862
aF0.00193
aF0.00288
aF0.00426
aF0.00183
aF0.01873
aF0.00099
aF0.00412
aF0.00413
aF0.00066
aF0.29235
aF0.00117
aF0.0058
aF0.00132
aF0.00179
aF0.00017
aF0.08837
aF0.00034
aF0.05947
aF0.36527
aF0.03716
aF0.04226
aF0.05949
aF0.00063
aF0.90688
aF0.00805
aF0.05413
aF0.00704
aF1.13435
aF0.00284
aF0.00221
aF0.00011
aF0.16094
aF0.00024
aF0.1714
aF0.00049
aF0.20087
aF0.00249
aF0.01553
aF1.35831
aF0.00636
aF0.00268
aF0.25726
aF0.00999
aF0.00014
aF0.02752
aF0.00108
aF6.48897
aF0.04479
aF1.81716
aF0.31872
aF1.45087
aF0.01912
aF0.00482
aF0.69432
aF0.01319
aF0.00129
aF0.00735
aF0.00048
aF0.05114
aF0.37521
aF0.00097
aF0.00215
aF0.00027
aF0.21298
aF0.00115
aF0.00264
aF0.06258
aF0.45082
aF0.00367
aF0.59516
aF0.00035
aF2.15363
aF0.08862
aF0.21631
aF0.02859
aF0.00946
aF0.00301
aF0.03463
aF0.24744
aF0.00054
aF0.12975
aF0.00138
aF0.00414
aF5.56146
aF0.00426
aF0.00344
aF0.36484
aF0.0023
aF0.00375
aF0.03345
aF0.03534
aF0.0041
aF0.00049
aF0.00419
aF25.31257
aF0.00554
aF0.00084
aF0.00256
aF0.00646
aF0.0001
aF0.01542
aF0.01083
aF0.28381
aF0.00058
aF2e-05
aF0.02698
aF0.00116
aF0.00068
aF1.71988
aF0.00246
aF1.91492
aF9.81455
aF0.06652
aF0.00032
aF0.05043
aF0.0003
aF0.02623
aF0.00034
aF0.55085
aF2.05784
aF0.00024
aF0.00798
aF0.31415
aF0.10677
aF0.01265
aF0.00344
aF0.00334
aF3.69838
aF0.02121
aF0.20596
aF0.00075
aF4.95674
aF0.0007
aF0.00041
aF0.00709
aF0.00068
aF0.00349
aF1.75281
aF0.00171
aF0.00236
aF0.0002
aF0.00438
aF0.00041
aF0.14114
aF0.00931
aF0.37006
aF0.00846
aF0.01229
aF0.05388
aF0.01156
aF0.00275
aF0.02896
aF0.2847
aF0.01303
aF8e-05
aF0.71942
aF0.01158
aF0.00025
aF5.11042
aF0.19465
aF0.00415
aF0.00857
aF0.05188
aF1.4461
aF0.2504
aF0.00023
aF0.01929
aF0.00711
aF0.39483
aF0.02065
aF0.91777
aF50.98799
aF1.25283
aF0.00319
aF9.4052
aF0.01187
aF0.06932
aF0.00066
aF0.00524
aF0.00014
aF0.00456
aF1.18176
aF0.00354
aF0.04488
aF0.24198
aF0.00618
aF0.00116
aF0.60843
aF0.43744
aF0.00044
aF0.00161
aF0.00624
aF0.0006
aF0.00152
aF23.51535
aF0.02003
aF0.00108
aF0.23433
aF2e-05
aF0.01168
aF0.00441
aF0.19057
aF0.00011
aF0.00032
aF0.01104
aF0.00043
aF0.00934
aF0.00024
aF0.31464
aF0.00208
aF0.01232
aF0.53467
aF49.35979
aF0.01507
aF0.33428
aF1.59256
aF0.01495
aF0.00661
aF0.00382
aF5e-05
aF0.00035
aF0.04672
aF0.01477
aF0.00216
aF0.00134
aF136.5225
aF0.08281
aF0.01047
aF0.00263
aF0.0021
aF0.00309
aF0.79211
aF0.00236
aF0.00469
aF0.0003
aF0.02493
aF0.60541
aF0.0012
aF0.00495
aF0.0031
aF7e-05
aF1e-05
aF35.15985
aF2.93911
aF0.06544
aF0.00148
aF0.02054
aF0.0001
aF0.00042
aF0.10025
aF0.09852
aF0.32368
aF0.01267
aF0.01163
aF0.27162
aF0.00279
aF0.26835
aF0.11565
aF0.00442
aF0.56267
aF0.04095
aF0.0074
aF17.07605
aF0.83406
aF0.00434
aF0.00529
aF0.00732
aF0.00296
aF0.01233
aF0.01333
aF0.03093
aF0.23894
aF0.11343
aF0.00049
aF0.01945
aF0.00901
aF0.34568
aF0.01643
aF0.02068
aF0.08791
aF105.2922
aF0.00345
aF0.00041
aF0.04868
aF2.67334
aF0.00064
aF3.72895
aF0.00121
aF0.04127
aF0.00179
aF1.40569
aF0.00604
aF7e-05
aF4e-05
aF0.01499
aF0.00422
aF170.6856
aF0.0005
aF0.14534
aF0.00135
aF0.00992
aF0.10261
aF1.09428
aF0.02138
aF0.00019
aF0.01342
aF0.00245
aF0.2287
aF0.02995
aF0.04102
aF0.53071
aF0.00096
aF0.00117
aF0.04239
aF2.91448
aF0.00031
aF0.01811
aF0.00284
aF0.00934
aF3e-05
aF0.00044
aF0.00206
aF0.1559
aF0.01057
aF0.63906
aF28.16534
aF4.69858
aF17.33018
aF0.01193
aF0.11338
aF0.00182
aF0.00078
aF0.00628
aF0.00418
aF0.00708
aF0.00123
aF145.1616
aF0.04799
aF0.01478
aF0.00083
aF0.00038
aF0.01124
aF0.0032
aF5.09839
aF0.00034
aF0.00034
aF0.00809
aF0.00028
aF0.00773
aF0.28766
aF0.00188
aF0.00047
aF0.00058
aF0.00388
aF0.00011
aF0.04097
aF0.01224
aF0.00604
aF0.00209
aF50.48133
aF0.00256
aF0.00387
aF0.00738
aF0.00053
aF0.00029
aF0.08901
aF0.16615
aF0.00218
aF0.00199
aF0.00255
aF0.00389
aF8e-05
aF1e-05
aF10.89008
aF0.00119
aF0.02815
aF0.02073
aF0.18807
aF1.51421
aF0.00093
aF0.00477
aF57.40608
aF0.00427
aF0.00076
aF0.00932
aF0.01099
aF0.00086
aF0.00401
aF0.07398
aF0.03266
aF0.00039
aF0.00058
aF0.00061
aF0.01866
aF0.00451
aF0.00096
aF43.55769
aF0.03169
aF0.00352
aF0.00427
aF0.06652
aF0.13107
aF1.46839
aF0.02783
aF0.00049
aF0.00045
aF0.00371
aF0.06925
aF0.00918
aF6e-05
aF0.29091
aF0.00035
aF0.00015
aF0.21132
aF0.21306
aF0.05537
aF0.00899
aF0.99523
aF0.01429
aF0.11754
aF0.04922
aF0.00343
aF0.00716
aF1e-05
aF1.14417
aF55.67122
aF0.00993
aF0.22902
aF14.57285
aF0.06643
aF0.00739
aF0.12868
aF0.00618
aF0.00572
aF0.00028
aF30.47412
aF0.45512
aF0.02341
aF0.07552
aF0.0
aF0.85919
aF0.00322
aF0.00112
aF0.05031
aF0.00989
aF0.08502
aF62.92932
aF0.07536
aF0.00436
aF0.14091
aF6e-05
aF0.00197
aF0.17331
aF0.09141
aF0.00054
aF0.01884
aF0.00034
aF0.00025
aF0.0838
aF0.00033
aF0.00011
aF91.95263
aF0.00118
aF0.00817
aF0.07376
aF0.1534
aF0.41836
aF3.71733
aF0.00128
aF44.02334
aF0.0912
aF0.05672
aF0.00924
aF1.69663
aF2.16492
aF0.23343
aF5.48164
aF0.01892
aF6.91319
aF0.06487
aF0.01538
aF3.34628
aF0.00589
aF0.79607
aF0.00188
aF2.33324
aF12.22904
aF0.06407
aF0.00439
aF0.46465
aF7e-05
aF0.00255
aF0.00579
aF0.22664
aF0.00139
aF43.35147
aF3.15163
aF5.78588
aF0.00033
aF0.90266
aF0.00069
aF0.07366
aF3.95967
aF0.19026
aF3e-05
aF0.01937
aF0.06339
aF0.04598
aF0.00043
aF0.00704
aF0.00988
aF1.73099
aF0.0097
aF41.12408
aF0.02361
aF0.19369
aF0.01255
aF0.01112
aF26.40126
aF0.00628
aF0.03798
aF0.00936
aF0.19871
aF0.00279
aF0.00081
aF8e-05
aF5.46022
aF0.11026
aF3.17859
aF3.93534
aF287.2729
aF0.44347
aF0.00137
aF0.05846
aF27.49001
aF0.18521
aF0.08714
aF8.27994
aF0.00101
aF0.48862
aF0.24335
aF0.02249
aF0.00519
aF0.1077
aF19.40084
aF1.06875
aF74.5174
aF8.42182
aF0.48888
aF0.15962
aF3.09146
aF97.77469
aF0.01096
aF0.03245
aF0.13605
aF0.00204
aF0.0008
aF0.4747
aF0.10272
aF9.55788
aF39.60308
aF8.63908
aF3.48087
aF13.25492
aF0.63003
aF14.12172
aF0.64991
aF0.00081
aF8.60503
aF0.00667
aF0.25198
aF0.02247
aF4.38656
aF31.31136
aF0.34141
aF0.00411
aF0.00065
aF0.66266
aF0.0091
aF0.00835
aF0.03046
aF0.00653
aF86.75624
aF11.49897
aF0.00925
aF0.02555
aF3.1353
aF110.2337
aF252.3666
aF0.25196
aF0.04022
aF0.11629
aF0.4603
aF0.03041
aF0.0418
aF0.16994
aF0.09588
aF0.00529
aF0.803
aF3.53668
aF22.19564
aF0.1493
aF0.23961
aF3.16749
aF0.00011
aF0.00098
aF4.29768
aF0.05652
aF0.00182
aF0.14715
aF1.17091
aF97.90775
aF1.10206
aF38.93288
aF0.19254
aF163.5843
aF0.00939
aF0.01535
aF0.05028
aF1.19344
aF0.01323
aF0.00234
aF0.05281
aF0.0005
aF0.0411
aF0.01664
aF85.05974
aF0.09902
aF0.00018
aF0.1655
aF0.00568
aF0.28962
aF0.00655
aF0.00278
aF0.0003
aF0.0012
aF0.00088
aF0.36528
aF0.01415
aF21.53485
aF0.1099
aF23.00187
aF1.95552
aF0.70576
aF0.103
aF0.0854
aF0.87843
aF0.05706
aF0.01223
aF0.01059
aF0.67568
aF0.00726
aF0.04589
aF0.00183
aF0.02347
aF0.01864
aF492.4971
aF0.22287
aF0.00845
aF0.10157
aF0.00047
aF0.00625
aF1.11692
aF564.1892
aF23.68605
aF0.70675
aF0.00142
aF0.3225
aF0.00095
aF4e-05
aF1.01334
aF8.93604
aF0.00349
aF0.19616
aF19.34401
aF13.99896
aF82.19911
aF155.0674
aF1.43746
aF0.08323
aF0.04644
aF8.96655
aF0.14582
aF0.04431
aF0.00954
aF1.9042
aF0.37514
aF0.21799
aF12.89067
aF0.89572
aF5.73776
aF1.54217
aF0.00099
aF0.00554
aF0.0001
aF0.0012
aF0.00181
aF5.17557
aF2.26614
aF2.51214
aF242.9789
aF0.00324
aF15.95503
aF0.65396
aF0.86353
aF0.31215
aF2.38394
aF0.0097
aF5.10184
aF0.64333
aF23.67489
aF0.07889
aF0.00263
aF0.14027
aF0.07459
aF0.03786
aF0.09778
aF62.16324
aF27.95683
aF1.07323
aF0.03347
aF1.29704
aF11.26513
aF2.67875
aF0.31868
aF0.07223
aF2.83974
aF0.02368
aF0.18211
aF0.02502
aF1.44848
aF0.01355
aF1.35387
aF2.14849
aF0.06113
aF267.2373
aF0.79735
aF0.04935
aF8.40953
aF0.20872
aF0.53356
aF0.04366
aF0.12294
aF253.7319
aF0.07173
aF0.44642
aF0.00079
aF0.00029
aF0.00471
aF0.00843
aF0.0039
aF0.00264
aF0.00146
aF0.01029
aF7e-05
aF3.69227
aF424.058
aF0.00143
aF23.87728
aF0.4501
aF0.00854
aF0.80371
aF0.04408
aF0.01046
aF5.15396
aF0.00878
aF0.03787
aF10.69211
aF0.0453
aF0.01138
aF0.16044
aF0.09196
aF0.04346
aF0.21789
aF0.13798
aF0.02049
aF0.20323
aF0.08722
aF27.49483
aF0.26498
aF0.31527
aF0.1857
aF1.13462
aF7.25582
aF0.12263
aF0.30929
aF0.03294
aF0.02087
aF0.94914
aF0.30978
aF3.86052
aF0.32706
aF69.31004
aF0.30609
aF80.29901
aF10.09523
aF0.06941
aF0.18663
aF72.18408
aF0.20909
aF0.22276
aF0.08367
aF0.15679
aF0.07638
aF0.00575
aF0.1505
aF325.2365
aF25.62836
aF0.34622
aF2.51696
aF2.42726
aF34.55903
aF1.98619
aF0.36314
aF0.08705
aF0.52942
aF0.00163
aF0.04154
aF0.03508
aF2.52192
aF0.00527
aF1.19194
aF0.55435
aF9.26365
aF252.2979
aF0.01507
aF0.00305
aF0.23803
aF0.0132
aF0.00769
aF2.07977
asS'Slits_computed_errors'
p3
(lp4
F0.047745
aF0.039513
aF0.040031
aF0.104311
aF0.029148
aF0.063382
aF0.067678
aF0.044929
aF0.081531
aF0.035334
aF0.044654
aF0.115633
aF0.091919
aF0.066148
aF0.065342
aF0.09392
aF0.03769
aF0.11449
aF0.033319
aF0.013784
aF0.037875
aF0.130405
aF0.108942
aF0.042745
aF0.085561
aF0.05242
aF0.102777
aF0.076372
aF0.018887
aF0.10012
aF0.099753
aF0.093229
aF0.024748
aF0.050296
aF0.03274
aF0.0753
aF0.026664
aF0.072091
aF0.031694
aF0.047087
aF0.060861
aF0.077907
aF0.094564
aF0.094622
aF0.028346
aF0.056733
aF0.029693
aF0.086488
aF0.014918
aF0.024534
aF0.028007
aF0.026636
aF0.008138
aF0.034828
aF0.026026
aF0.100006
aF0.101561
aF0.235342
aF0.02062
aF0.022877
aF0.04613
aF0.030113
aF0.07345
aF0.093902
aF0.038847
aF0.016577
aF0.017092
aF0.068248
aF0.029259
aF0.101716
aF0.045766
aF0.025584
aF0.089827
aF0.095349
aF0.061211
aF0.087404
aF0.029627
aF0.081472
aF0.102012
aF0.085878
aF0.046814
aF0.018096
aF0.047293
aF0.062253
aF0.034772
aF0.055564
aF0.019429
aF0.090155
aF0.031122
aF0.009725
aF0.073083
aF0.082366
aF0.101948
aF0.106748
aF0.084921
aF0.055263
aF0.120759
aF0.037796
aF0.038178
aF0.024456
aF0.045021
aF0.019803
aF0.168076
aF0.052498
aF0.059994
aF0.13113
aF0.103057
aF0.121046
aF0.008233
aF0.012808
aF0.148048
aF0.079437
aF0.091544
aF0.116408
aF0.182017
aF0.032256
aF0.116811
aF0.09779
aF0.07327
aF0.036942
aF0.065958
aF0.132959
aF0.021332
aF0.081346
aF0.074582
aF0.011314
aF0.147484
aF0.102171
aF0.009769
aF0.075881
aF0.037962
aF0.047871
aF0.078126
aF0.067705
aF0.01424
aF0.117479
aF0.116363
aF0.041007
aF0.04001
aF0.018437
aF0.136317
aF0.027825
aF0.026383
aF0.018307
aF0.072831
aF0.194367
aF0.098242
aF0.087925
aF0.10371
aF0.068726
aF0.095714
aF0.022337
aF0.041593
aF0.013255
aF0.129669
aF0.06558
aF0.04523
aF0.017662
aF0.030504
aF0.015994
aF0.039973
aF0.110459
aF0.075122
aF0.047603
aF0.125008
aF0.102671
aF0.071995
aF0.090931
aF0.027782
aF0.13566
aF0.109487
aF0.076421
aF0.0802
aF0.076747
aF0.076978
aF0.014081
aF0.119719
aF0.110927
aF0.081253
aF0.063916
aF0.083133
aF0.079816
aF0.095427
aF0.027467
aF0.012008
aF0.059978
aF0.009634
aF0.066974
aF0.048816
aF0.060606
aF0.065089
aF0.08735
aF0.085285
aF0.01039
aF0.120154
aF0.059136
aF0.019635
aF0.121023
aF0.018201
aF0.118461
aF0.081909
aF0.086315
aF0.057464
aF0.105194
aF0.047729
aF0.150966
aF0.03945
aF0.088753
aF0.12319
aF0.158182
aF0.014589
aF0.15238
aF0.114315
aF0.035682
aF0.076381
aF0.096095
aF0.04719
aF0.053739
aF0.135099
aF0.095709
aF0.053721
aF0.065053
aF0.091984
aF0.093631
aF0.025593
aF0.068978
aF0.074201
aF0.169008
aF0.195841
aF0.19609
aF0.122774
aF0.043342
aF0.003339
aF0.104166
aF0.030766
aF0.121804
aF0.076509
aF0.111048
aF0.106465
aF0.057159
aF0.087578
aF0.146415
aF0.144837
aF0.070307
aF0.117631
aF0.050229
aF0.050418
aF0.090416
aF0.075586
aF0.068956
aF0.089012
aF0.079349
aF0.077273
aF0.013536
aF0.095385
aF0.077437
aF0.032082
aF0.081764
aF0.078814
aF0.051494
aF0.093793
aF0.05821
aF0.093148
aF0.023423
aF0.126539
aF0.067149
aF0.072952
aF0.080065
aF0.051743
aF0.070444
aF0.076538
aF0.070498
aF0.00932
aF0.143291
aF0.105346
aF0.124681
aF0.070399
aF0.088746
aF0.016486
aF0.074451
aF0.070115
aF0.198408
aF0.154851
aF0.056603
aF0.113268
aF0.063209
aF0.101095
aF0.094632
aF0.09663
aF0.086885
aF0.099011
aF0.094959
aF0.093322
aF0.051115
aF0.016702
aF0.080171
aF0.084428
aF0.048748
aF0.125565
aF0.022031
aF0.058364
aF0.053323
aF0.124276
aF0.347667
aF0.120468
aF0.007206
aF0.097278
aF0.019047
aF0.063611
aF0.099697
aF0.105668
aF0.139522
aF0.07588
aF0.153874
aF0.181916
aF0.087222
aF0.065183
aF0.148203
aF0.086182
aF0.06688
aF0.073188
aF0.071178
aF0.064012
aF0.157276
aF0.124532
aF0.077163
aF0.094122
aF0.033597
aF0.044836
aF0.030473
aF0.100797
aF0.153584
aF0.084631
aF0.089532
aF0.082381
aF0.03583
aF0.036895
aF0.084002
aF0.038418
aF0.065875
aF0.074777
aF0.105833
aF0.133818
aF0.14914
aF0.074777
aF0.105833
aF0.133818
aF0.14914
aF0.089466
aF0.171955
aF0.021839
aF0.0037
aF0.05147
aF0.039484
aF0.018718
aF0.10491
aF0.101367
aF0.066858
aF0.169588
aF0.042343
aF0.033724
aF0.069291
aF0.009788
aF0.065594
aF0.128961
aF0.173366
aF0.076707
aF0.004909
aF0.075658
aF0.114898
aF0.038481
aF0.054488
aF0.024288
aF0.014362
aF0.07579
aF0.039454
aF0.031383
aF0.066844
aF0.069396
aF0.049868
aF0.093091
aF0.11099
aF0.067468
aF0.030227
aF0.050875
aF0.108037
aF0.107883
aF0.193674
aF0.086758
aF0.067632
aF0.109995
aF0.102859
aF0.048542
aF0.032756
aF0.069378
aF0.090588
aF0.08182
aF0.08741
aF0.032687
aF0.047716
aF0.094613
aF0.098649
aF0.129441
aF0.086959
aF0.055525
aF0.040638
aF0.031403
aF0.054785
aF0.018907
aF0.056085
aF0.022543
aF0.048976
aF0.004008
aF0.061985
aF0.116479
aF0.087323
aF0.057036
aF0.106472
aF0.144094
aF0.03242
aF0.023517
aF0.135709
aF0.032398
aF0.098703
aF0.104582
aF0.206168
aF0.020928
aF0.094051
aF0.003724
aF0.067656
aF0.02951
aF0.038624
aF0.112683
aF0.042372
aF0.071851
aF0.032458
aF0.030774
aF0.008976
aF0.048279
aF0.051311
aF0.02935
aF0.050716
aF0.044619
aF0.058671
aF0.087428
aF0.071349
aF0.086716
aF0.123588
aF0.104672
aF0.087795
aF0.057598
aF0.082981
aF0.118236
aF0.086577
aF0.070551
aF0.085013
aF0.158578
aF0.064508
aF0.070795
aF0.028563
aF0.042472
aF0.055777
aF0.08509
aF0.045109
aF0.098258
aF0.046693
aF0.023506
aF0.076175
aF0.079939
aF0.090737
aF0.136322
aF0.043038
aF0.086123
aF0.123049
aF0.012368
aF0.059197
aF0.031478
aF0.139499
aF0.065361
aF0.11592
aF0.053842
aF0.087898
aF0.077282
aF0.094252
aF0.012117
aF0.068821
aF0.109815
aF0.113978
aF0.040512
aF0.072326
aF0.030702
aF0.114584
aF0.057507
aF0.077121
aF0.037887
aF0.051658
aF0.042393
aF0.071732
aF0.062966
aF0.009504
aF0.018431
aF0.055223
aF0.00728
aF0.126975
aF0.089653
aF0.036145
aF0.023885
aF0.056935
aF0.147971
aF0.083038
aF0.150787
aF0.06201
aF0.040696
aF0.137565
aF0.006533
aF0.111578
aF0.047771
aF0.067197
aF0.061318
aF0.073497
aF0.063367
aF0.069047
aF0.057807
aF0.085278
aF0.046415
aF0.130209
aF0.04916
aF0.053586
aF0.061076
aF0.054692
aF0.020424
aF0.083911
aF0.082645
aF0.08279
aF0.164337
aF0.066465
aF0.030122
aF0.043294
aF0.13723
aF0.089483
aF0.036358
aF0.063105
aF0.078976
aF0.091392
aF0.053531
aF0.065505
aF0.126388
aF0.109328
aF0.018054
aF0.024656
aF0.09318
aF0.06151
aF0.063401
aF0.055156
aF0.092802
aF0.020567
aF0.01052
aF0.14383
aF0.098316
aF0.039684
aF0.122585
aF0.042382
aF0.128798
aF0.053857
aF0.076681
aF0.112991
aF0.028229
aF0.087953
aF0.050609
aF0.18074
aF0.030037
aF0.060216
aF0.108453
aF0.068781
aF0.031146
aF0.096955
aF0.053431
aF0.110408
aF0.071128
aF0.051107
aF0.027374
aF0.067992
aF0.138532
aF0.113032
aF0.067701
aF0.073725
aF0.092161
aF0.049966
aF0.100609
aF0.133233
aF0.144874
aF0.053692
aF0.017162
aF0.027259
aF0.020072
aF0.015559
aF0.131707
aF0.066496
aF0.195827
aF0.030353
aF0.035492
aF0.121554
aF0.111357
aF0.08251
aF0.051514
aF0.026443
aF0.123843
aF0.093146
aF0.08466
aF0.018335
aF0.141747
aF0.101326
aF0.109397
aF0.117511
aF0.06974
aF0.104774
aF0.011516
aF0.119421
aF0.067047
aF0.101048
aF0.107765
aF0.23814
aF0.092637
aF0.126428
aF0.043795
aF0.165631
aF0.061139
aF0.115178
aF0.079241
aF0.07689
aF0.054929
aF0.048193
aF0.131703
aF0.151421
aF0.123954
aF0.061078
aF0.122936
aF0.01803
aF0.059001
aF0.098434
aF0.040732
aF0.050786
aF0.101183
aF0.074971
aF0.075469
aF0.115339
aF0.052308
aF0.070468
aF0.094998
aF0.068784
aF0.047064
aF0.11339
aF0.106852
aF0.063375
aF0.062098
aF0.110866
aF0.106617
aF0.080889
aF0.027471
aF0.015369
aF0.103405
aF0.076592
aF0.145357
aF0.086034
aF0.119216
aF0.02962
aF0.152847
aF0.107516
aF0.100987
aF0.145254
aF0.015654
aF0.061137
aF0.096039
aF0.117036
aF0.033965
aF0.117021
aF0.27012
aF0.045325
aF0.081981
aF0.0502
aF0.03202
aF0.050689
aF0.075355
aF0.088623
aF0.047145
aF0.066158
aF0.051401
aF0.111983
aF0.063386
aF0.039153
aF0.006292
aF0.086786
aF0.138036
aF0.161513
aF0.114432
aF0.065967
aF0.045866
aF0.217003
aF0.042707
aF0.209827
aF0.076269
aF0.109935
aF0.109193
aF0.076681
aF0.083082
aF0.067112
aF0.031208
aF0.045831
aF0.057134
aF0.035194
aF0.089725
aF0.078906
aF0.091461
aF0.04293
aF0.06064
aF0.077292
aF0.071521
aF0.082811
aF0.061788
aF0.024695
aF0.01774
aF0.050508
aF0.027469
aF0.120007
aF0.025467
aF0.065064
aF0.022232
aF0.040305
aF0.105591
aF0.012962
aF0.011985
aF0.045843
aF0.104635
aF0.015159
aF0.107797
aF0.078278
aF0.037482
aF0.071926
aF0.091428
aF0.135814
aF0.083715
aF0.157466
aF0.1062
aF0.106598
aF0.128604
aF0.034744
aF0.132971
aF0.213078
aF0.091409
aF0.089905
aF0.06716
aF0.068591
aF0.07593
aF0.069364
aF0.120635
aF0.028501
aF0.067505
aF0.109026
aF0.159736
aF0.045776
aF0.032213
aF0.110233
aF0.019101
aF0.164797
aF0.080185
aF0.064934
aF0.053728
aF0.03132
aF0.019032
aF0.109794
aF0.006424
aF0.055422
aF0.055571
aF0.009262
aF0.098316
aF0.019937
aF0.062848
aF0.117365
aF0.166267
aF0.057439
aF0.111235
aF0.120709
aF0.038549
aF0.013965
aF0.098204
aF0.075803
aF0.064912
aF0.032887
aF0.034234
aF0.048414
aF0.076807
aF0.076417
aF0.040022
aF0.045198
aF0.065674
aF0.033657
aF0.062133
aF0.073476
aF0.050661
aF0.045081
aF0.049671
aF0.090571
aF0.07792
aF0.107515
aF0.064286
aF0.058365
aF0.112217
aF0.084467
aF0.028998
aF0.121754
aF0.031329
aF0.12284
aF0.067637
aF0.009821
aF0.011899
aF0.03491
aF0.118211
aF0.012689
aF0.03129
aF0.059107
aF0.056812
aF0.117115
aF0.14338
aF0.078128
aF0.105477
aF0.047838
aF0.188961
aF0.073423
aF0.068188
aF0.021071
aF0.04919
aF0.122823
aF0.127657
aF0.039838
aF0.101469
aF0.100671
aF0.010909
aF0.015234
aF0.082016
aF0.100297
aF0.008751
aF0.01133
aF0.153492
aF0.075359
aF0.134145
aF0.020554
aF0.164074
aF0.064804
aF0.011005
aF0.094727
aF0.079296
aF0.039261
aF0.014099
aF0.02972
aF0.091629
aF0.020871
aF0.019322
aF0.054966
aF0.082382
aF0.015667
aF0.049729
aF0.0778
aF0.052581
aF0.076047
aF0.114002
aF0.064294
aF0.026138
aF0.172456
aF0.045506
aF0.026893
aF0.106175
aF0.03304
aF0.114335
aF0.106461
aF0.070278
aF0.089163
aF0.10582
aF0.011303
aF0.044651
aF0.068953
aF0.080013
aF0.053729
aF0.077163
aF0.079433
aF0.045364
aF0.034668
aF0.020176
aF0.076545
aF0.039968
aF0.025769
aF0.094716
aF0.114961
aF0.025816
aF0.033599
aF0.079691
aF0.059202
aF0.066682
aF0.062441
aF0.089178
aF0.14914
aF0.047836
aF0.041253
aF0.042668
aF0.107604
aF0.066128
aF0.049749
aF0.041259
aF0.026723
aF0.03937
aF0.011319
aF0.126999
aF0.03472
aF0.065903
aF0.03288
aF0.019441
aF0.035696
aF0.069427
aF0.088887
aF0.050416
aF0.159391
aF0.022911
aF0.06438
aF0.040887
aF0.116543
aF0.155496
aF0.122343
aF0.07702
aF0.108772
aF0.059317
aF0.062737
aF0.03205
aF0.007689
aF0.069252
aF0.041946
aF0.128441
aF0.116545
aF0.077595
aF0.045286
aF0.100673
aF0.098858
aF0.128503
aF0.006473
aF0.112909
aF0.048886
aF0.050912
aF0.037604
aF0.024623
aF0.148965
aF0.079516
aF0.175086
aF0.025051
aF0.024281
aF0.007141
aF0.18658
aF0.025943
aF0.023708
aF0.005911
aF0.184422
aF0.085379
aF0.049424
aF0.024587
aF0.127703
aF0.089036
aF0.049961
aF0.042945
aF0.11553
aF0.015941
aF0.055496
aF0.068254
aF0.023468
aF0.029983
aF0.05754
aF0.096648
aF0.065517
aF0.047861
aF0.065492
aF0.054368
aF0.108915
aF0.069804
aF0.053287
aF0.028624
aF0.050287
aF0.072193
aF0.056346
aF0.069792
aF0.033612
aF0.103862
aF0.098881
aF0.111348
aF0.026825
aF0.046763
aF0.088116
aF0.038659
aF0.073318
aF0.074143
aF0.079538
aF0.024039
aF0.026155
aF0.15512
aF0.118982
aF0.049745
aF0.012656
aF0.087008
aF0.122807
aF0.152778
aF0.038963
aF0.113319
aF0.038547
aF0.158735
aF0.079577
aF0.136321
aF0.017925
aF0.090208
aF0.10354
aF0.076125
aF0.088383
aF0.06988
aF0.149326
aF0.104326
aF0.062329
aF0.051286
aF0.048577
aF0.054104
aF0.129174
aF0.101857
aF0.047748
aF0.105543
aF0.078999
aF0.050352
aF0.182819
aF0.019663
aF0.055524
aF0.060266
aF0.081062
aF0.026126
aF0.011516
aF0.077536
aF0.025639
aF0.025379
aF0.111169
aF0.010541
aF0.132663
aF0.154505
aF0.11021
aF0.109301
aF0.077806
aF0.089936
aF0.046825
aF0.126119
aF0.089802
aF0.098312
aF0.042252
aF0.021971
aF0.012637
aF0.056853
aF0.038498
aF0.040306
aF0.076839
aF0.106716
aF0.11445
aF0.077377
aF0.060569
aF0.03525
aF0.102396
aF0.070281
aF0.067921
aF0.055272
aF0.095052
aF0.057715
aF0.040385
aF0.072377
aF0.074478
aF0.075397
aF0.113393
aF0.087122
aF0.044063
aF0.105475
aF0.036614
aF0.057013
aF0.084347
aF0.04388
aF0.131057
aF0.121756
aF0.111275
aF0.065133
aF0.097194
aF0.097266
aF0.048301
aF0.150998
aF0.121072
aF0.030196
aF0.07794
aF0.075783
aF0.04785
aF0.09369
aF0.093078
aF0.09679
aF0.023242
aF0.054512
aF0.15734
aF0.146854
aF0.137024
aF0.092808
aF0.087933
aF0.136408
aF0.13994
aF0.093644
aF0.028066
aF0.033587
aF0.046489
aF0.072915
aF0.101566
aF0.144206
aF0.031534
aF0.077885
aF0.17414
aF0.022336
aF0.029062
aF0.043094
aF0.043311
aF0.037537
aF0.08603
aF0.069623
aF0.148437
aF0.075066
aF0.027733
aF0.083058
aF0.02714
aF0.088419
aF0.083945
aF0.095966
aF0.089508
aF0.041472
aF0.102063
aF0.162901
aF0.018958
aF0.066094
aF0.092738
aF0.048056
aF0.012915
aF0.079688
aF0.069638
aF0.09334
aF0.066928
aF0.04166
aF0.086551
aF0.053356
aF0.05972
aF0.108691
aF0.028568
aF0.011334
aF0.062762
aF0.060154
aF0.04404
aF0.106474
aF0.110634
aF0.080685
aF0.089976
aF0.059131
aF0.09184
aF0.058862
aF0.024544
aF0.094873
aF0.044507
aF0.090039
aF0.111906
aF0.0696
aF0.116005
aF0.065556
aF0.090342
aF0.029382
aF0.122081
aF0.089813
aF0.032184
aF0.152159
aF0.103204
aF0.096406
aF0.029183
aF0.125806
aF0.085955
aF0.09723
aF0.165706
aF0.099511
aF0.089908
aF0.036727
aF0.058865
aF0.029187
aF0.013836
aF0.038769
aF0.032639
aF0.009184
aF0.088285
aF0.095009
aF0.060876
aF0.101924
aF0.07132
aF0.026838
aF0.079512
aF0.106511
aF0.066397
aF0.038407
aF0.014814
aF0.052078
aF0.058534
aF0.053512
aF0.00755
aF0.043359
aF0.100949
aF0.122646
aF0.020613
aF0.117321
aF0.109424
aF0.038904
aF0.078963
aF0.11283
aF0.134394
aF0.097901
aF0.020452
aF0.041425
aF0.18091
aF0.065254
aF0.022581
aF0.034644
aF0.011012
aF0.058204
aF0.048812
aF0.160373
aF0.121486
aF0.066369
aF0.033954
aF0.091992
aF0.03101
aF0.081016
aF0.009585
aF0.030237
aF0.105395
aF0.082209
aF0.012451
aF0.032972
aF0.142478
aF0.101752
aF0.094043
aF0.185891
aF0.009791
aF0.095998
aF0.012451
aF0.108906
aF0.032972
aF0.011283
aF0.142478
aF0.101752
aF0.094043
aF0.185891
aF0.009791
aF0.095998
aF0.040798
aF0.020396
aF0.086908
aF0.075188
aF0.042729
aF0.080753
aF0.028137
aF0.124197
aF0.018467
aF0.027102
aF0.024896
aF0.140434
aF0.169584
aF0.046623
aF0.010596
aF0.046895
aF0.034495
aF0.047337
aF0.0929
aF0.097529
aF0.029479
aF0.069764
aF0.041007
aF0.028907
aF0.085566
aF0.080895
aF0.077056
aF0.09226
aF0.060454
aF0.042206
aF0.038713
aF0.088127
aF0.080253
aF0.132417
aF0.059994
aF0.086421
aF0.167489
aF0.103336
aF0.048612
aF0.026101
aF0.033437
aF0.102142
aF0.052491
aF0.059171
aF0.017228
aF0.091317
aF0.05318
aF0.158667
aF0.089919
aF0.006324
aF0.073619
aF0.104629
aF0.118828
aF0.0759
aF0.034382
aF0.02161
aF0.149344
aF0.130071
aF0.052107
aF0.061209
aF0.072105
aF0.077592
aF0.059707
aF0.009359
aF0.086936
aF0.029655
aF0.100309
aF0.078281
aF0.067443
aF0.015595
aF0.03585
aF0.086845
aF0.092993
aF0.061273
aF0.035494
aF0.134508
aF0.091538
aF0.092703
aF0.044982
aF0.085128
aF0.034016
aF0.02641
aF0.017276
aF0.055662
aF0.040222
aF0.114737
aF0.050475
aF0.123914
aF0.076607
aF0.025026
aF0.065708
aF0.054253
aF0.068134
aF0.106567
aF0.066414
aF0.037918
aF0.063764
aF0.075434
aF0.087725
aF0.044301
aF0.059876
aF0.054256
aF0.08528
aF0.067715
aF0.108824
aF0.026579
aF0.094851
aF0.068588
aF0.051995
aF0.054038
aF0.060319
aF0.060931
aF0.063726
aF0.047708
aF0.07717
aF0.021447
aF0.047756
aF0.103738
aF0.057384
aF0.127005
aF0.102462
aF0.065291
aF0.085611
aF0.086539
aF0.088524
aF0.049353
aF0.069573
aF0.084142
aF0.063081
aF0.041644
aF0.045281
aF0.0877
aF0.061554
aF0.0781
aF0.05814
aF0.082444
aF0.066698
aF0.022054
aF0.090147
aF0.020625
aF0.05788
aF0.064968
aF0.112858
aF0.105199
aF0.10121
aF0.061136
aF0.114432
aF0.092249
aF0.105199
aF0.10121
aF0.061136
aF0.114432
aF0.092249
aF0.050216
aF0.154147
aF0.109502
aF0.041507
aF0.101639
aF0.068471
aF0.03476
aF0.095268
aF0.034193
aF0.087837
aF0.142992
aF0.030976
aF0.095383
aF0.081968
aF0.021539
aF0.079769
aF0.117201
aF0.111627
aF0.13027
aF0.112515
aF0.117491
aF0.019804
aF0.090376
aF0.105127
aF0.064097
aF0.072896
aF0.059712
aF0.128023
aF0.072471
aF0.019152
aF0.089375
aF0.062266
aF0.067393
aF0.108499
aF0.081965
aF0.109253
aF0.026324
aF0.078414
aF0.046249
aF0.03789
aF0.0178
aF0.101492
aF0.103356
aF0.094704
aF0.081571
aF0.093416
aF0.027355
aF0.013078
aF0.030886
aF0.063549
aF0.098306
aF0.064454
aF0.020224
aF0.076438
aF0.059102
aF0.032722
aF0.103548
aF0.031909
aF0.142474
aF0.063035
aF0.072225
aF0.068407
aF0.107008
aF0.068973
aF0.107964
aF0.027213
aF0.028373
aF0.020899
aF0.042895
aF0.093664
aF0.046337
aF0.121418
aF0.059669
aF0.030158
aF0.026009
aF0.028414
aF0.119369
aF0.027841
aF0.090038
aF0.072873
aF0.125993
aF0.120042
aF0.055637
aF0.124028
aF0.103273
aF0.072855
aF0.0339
aF0.065586
aF0.045134
aF0.068161
aF0.098436
aF0.074198
aF0.045373
aF0.022249
aF0.056479
aF0.02575
aF0.046928
aF0.01455
aF0.058145
aF0.127974
aF0.011791
aF0.07135
aF0.070628
aF0.094093
aF0.152196
aF0.032033
aF0.017956
aF0.056468
aF0.053689
aF0.13596
aF0.086113
aF0.015941
aF0.051453
aF0.018491
aF0.113789
aF0.16805
aF0.027616
aF0.061498
aF0.092655
aF0.042235
aF0.115671
aF0.094114
aF0.031681
aF0.033253
aF0.046735
aF0.08519
aF0.067232
aF0.105098
aF0.080558
aF0.058139
aF0.076873
aF0.046259
aF0.038977
aF0.018531
aF0.083598
aF0.078754
aF0.141642
aF0.032552
aF0.07384
aF0.048138
aF0.120661
aF0.008289
aF0.078499
aF0.13222
aF0.044816
aF0.119991
aF0.092573
aF0.026911
aF0.112143
aF0.139712
aF0.08423
aF0.11267
aF0.091251
aF0.04083
aF0.070999
aF0.090515
aF0.024292
aF0.030035
aF0.078692
aF0.074739
aF0.067364
aF0.072926
aF0.076757
aF0.007032
aF0.022498
aF0.15628
aF0.078722
aF0.072561
aF0.041887
aF0.020313
aF0.039349
aF0.022656
aF0.055925
aF0.017315
aF0.09442
aF0.038221
aF0.086112
aF0.112401
aF0.058316
aF0.132501
aF0.082948
aF0.082867
aF0.090013
aF0.037568
aF0.011767
aF0.022077
aF0.061068
aF0.148275
aF0.055573
aF0.09534
aF0.121119
aF0.062681
aF0.099258
aF0.087444
aF0.078126
aF0.082353
aF0.080559
aF0.028723
aF0.083124
aF0.093295
aF0.024321
aF0.045395
aF0.063236
aF0.041659
aF0.091787
aF0.036259
aF0.121495
aF0.041546
aF0.009344
aF0.128021
aF0.07471
aF0.106331
aF0.066492
aF0.07168
aF0.079155
aF0.017937
aF0.071481
aF0.120888
aF0.061392
aF0.013484
aF0.012116
aF0.126326
aF0.022933
aF0.077518
aF0.137105
aF0.073577
aF0.126767
aF0.016915
aF0.068684
aF0.010772
aF0.109581
aF0.046764
aF0.01526
aF0.103739
aF0.113888
aF0.029254
aF0.049503
aF0.056381
aF0.106219
aF0.075388
aF0.040112
aF0.030131
aF0.098431
aF0.02279
aF0.085459
aF0.034361
aF0.093582
aF0.052545
aF0.061273
aF0.136475
aF0.100054
aF0.042743
aF0.087504
aF0.076569
aF0.069109
aF0.062109
aF0.067947
aF0.025971
aF0.01532
aF0.102533
aF0.025744
aF0.048909
aF0.015406
aF0.058172
aF0.067748
aF0.044284
aF0.049974
aF0.143769
aF0.073312
aF0.065425
aF0.070447
aF0.170308
aF0.038791
aF0.08721
aF0.032073
aF0.144768
aF0.102484
aF0.016322
aF0.12216
aF0.087019
aF0.018482
aF0.144535
aF0.062762
aF0.053673
aF0.009933
aF0.082661
aF0.122465
aF0.036644
aF0.059993
aF0.056457
aF0.026565
aF0.028392
aF0.083411
aF0.103629
aF0.042593
aF0.028768
aF0.067132
aF0.110608
aF0.111778
aF0.036664
aF0.1663
aF0.03
aF0.039548
aF0.119131
aF0.111035
aF0.09654
aF0.135764
aF0.077784
aF0.03468
aF0.069099
aF0.110283
aF0.092513
aF0.118486
aF0.017099
aF0.030662
aF0.020447
aF0.012307
aF0.098549
aF0.058934
aF0.073309
aF0.046542
aF0.049566
aF0.018696
aF0.065338
aF0.014395
aF0.110832
aF0.07686
aF0.025621
aF0.040896
aF0.071637
aF0.07948
aF0.065745
aF0.097601
aF0.11171
aF0.071262
aF0.023916
aF0.040783
aF0.162382
aF0.07431
aF0.055391
aF0.072947
aF0.109984
aF0.054065
aF0.037183
aF0.099289
aF0.034592
aF0.043299
aF0.06905
aF0.09382
aF0.035974
aF0.079675
aF0.082824
aF0.084252
aF0.083241
aF0.107574
aF0.161926
aF0.011834
aF0.037334
aF0.013946
aF0.181658
aF0.081382
aF0.039926
aF0.025378
aF0.032184
aF0.034911
aF0.098495
aF0.052872
aF0.018988
aF0.087629
aF0.042098
aF0.057969
aF0.058795
aF0.113509
aF0.040644
aF0.062742
aF0.013449
aF0.016542
aF0.064948
aF0.022996
aF0.110859
aF0.035914
aF0.091944
aF0.07674
aF0.048583
aF0.069232
aF0.070078
aF0.072926
aF0.065434
aF0.039333
aF0.127857
aF0.01639
aF0.051852
aF0.069761
aF0.027246
aF0.091367
aF0.042917
aF0.1022
aF0.076892
aF0.085202
aF0.155503
aF0.12824
aF0.022602
aF0.024204
aF0.019547
aF0.133545
aF0.019093
aF0.049173
aF0.044749
aF0.094105
aF0.101999
aF0.089982
aF0.022109
aF0.132534
aF0.020564
aF0.024795
aF0.021614
aF0.022927
aF0.091448
aF0.047533
aF0.055307
aF0.036785
aF0.042738
aF0.037017
aF0.091662
aF0.115657
aF0.045563
aF0.023227
aF0.087216
aF0.090599
aF0.082501
aF0.120423
aF0.035002
aF0.006415
aF0.043337
aF0.135914
aF0.097182
aF0.110874
aF0.062594
aF0.026228
aF0.068171
aF0.034574
aF0.084207
aF0.037182
aF0.088868
aF0.07247
aF0.038546
aF0.051595
aF0.046277
aF0.013432
aF0.042135
aF0.037616
aF0.04354
aF0.099836
aF0.114365
aF0.063677
aF0.067455
aF0.040844
aF0.054125
aF0.05868
aF0.048363
aF0.067455
aF0.044865
aF0.097411
aF0.106964
aF0.073086
aF0.083098
aF0.008406
aF0.012508
aF0.06451
aF0.015151
aF0.059658
aF0.09492
aF0.056765
aF0.028499
aF0.065454
aF0.039531
aF0.148074
aF0.06333
aF0.091195
aF0.099281
aF0.092292
aF0.018067
aF0.008804
aF0.110714
aF0.103214
aF0.10823
aF0.132437
aF0.045498
aF0.102474
aF0.109511
aF0.089221
aF0.083866
aF0.074331
aF0.014188
aF0.091614
aF0.094462
aF0.048671
aF0.026899
aF0.059703
aF0.027005
aF0.165204
aF0.092342
aF0.049908
aF0.056881
aF0.060646
aF0.075303
aF0.022865
aF0.114819
aF0.034486
aF0.059745
aF0.089467
aF0.051302
aF0.056718
aF0.063146
aF0.035279
aF0.048393
aF0.046305
aF0.014326
aF0.030879
aF0.068199
aF0.015575
aF0.042269
aF0.035261
aF0.112017
aF0.046851
aF0.125249
aF0.110583
aF0.021745
aF0.051354
aF0.037872
aF0.040197
aF0.026694
aF0.042931
aF0.015526
aF0.018001
aF0.095623
aF0.129877
aF0.037383
aF0.066833
aF0.019333
aF0.093307
aF0.02588
aF0.050591
aF0.048367
aF0.058717
aF0.0681
aF0.092758
aF0.028415
aF0.023724
aF0.077542
aF0.07331
aF0.023641
aF0.07954
aF0.064583
aF0.013358
aF0.124686
aF0.053047
aF0.098971
aF0.07575
aF0.058271
aF0.010697
aF0.11117
aF0.015243
aF0.058123
aF0.031656
aF0.077807
aF0.034347
aF0.097916
aF0.068144
aF0.030703
aF0.053987
aF0.080308
aF0.04988
aF0.103456
aF0.11663
aF0.033412
aF0.075077
aF0.062931
aF0.024875
aF0.108387
aF0.101753
aF0.027375
aF0.02737
aF0.098147
aF0.126104
aF0.034244
aF0.060724
aF0.036702
aF0.051853
aF0.083883
aF0.083462
aF0.080317
aF0.120061
aF0.044353
aF0.110486
aF0.035652
aF0.005707
aF0.129256
aF0.036303
aF0.024351
aF0.034159
aF0.07617
aF0.064306
aF0.065164
aF0.054306
aF0.127223
aF0.072136
aF0.088935
aF0.054801
aF0.12603
aF0.026915
aF0.060848
aF0.088045
aF0.042089
aF0.069144
aF0.089232
aF0.053432
aF0.091016
aF0.023233
aF0.015667
aF0.048679
aF0.04016
aF0.126507
aF0.046967
aF0.094866
aF0.045804
aF0.044807
aF0.089199
aF0.094425
aF0.066217
aF0.089287
aF0.089919
aF0.066709
aF0.117459
aF0.047364
aF0.03176
aF0.061146
aF0.106434
aF0.04474
aF0.024346
aF0.073048
aF0.062973
aF0.100354
aF0.077052
aF0.045604
aF0.018834
aF0.019175
aF0.011
aF0.046706
aF0.066415
aF0.009837
aF0.033322
aF0.13094
aF0.039953
aF0.075965
aF0.012983
aF0.052055
aF0.044628
aF0.159608
aF0.055233
aF0.054882
aF0.025429
aF0.10713
aF0.084995
aF0.099715
aF0.113989
aF0.041534
aF0.101337
aF0.035992
aF0.091081
aF0.013699
aF0.037113
aF0.125854
aF0.047333
aF0.017416
aF0.01125
aF0.038059
aF0.060758
aF0.037264
aF0.09263
aF0.120712
aF0.074832
aF0.038014
aF0.014487
aF0.042687
aF0.035065
aF0.088458
aF0.034191
aF0.092168
aF0.043186
aF0.09871
aF0.092766
aF0.102587
aF0.048019
aF0.053875
aF0.087505
aF0.024348
aF0.043223
aF0.029456
aF0.078443
aF0.062517
aF0.070751
aF0.084
aF0.014266
aF0.086961
aF0.067115
aF0.063839
aF0.08378
aF0.143482
aF0.040477
aF0.044975
aF0.14512
aF0.018526
aF0.05888
aF0.040285
aF0.019528
aF0.060447
aF0.038927
aF0.051453
aF0.062241
aF0.085665
aF0.112753
aF0.079886
aF0.030869
aF0.091807
aF0.109406
aF0.073104
aF0.008024
aF0.083369
aF0.027773
aF0.015203
aF0.043298
aF0.106657
aF0.088686
aF0.010267
aF0.144841
aF0.09303
aF0.053946
aF0.046026
aF0.05962
aF0.093713
aF0.073171
aF0.092054
aF0.062157
aF0.038053
aF0.083902
aF0.048709
aF0.040621
aF0.067376
aF0.055526
aF0.059939
aF0.088131
aF0.063952
aF0.066299
aF0.160297
aF0.02922
aF0.097923
aF0.045005
aF0.109207
aF0.131694
aF0.022202
aF0.090569
aF0.032275
aF0.011459
aF0.023057
aF0.074327
aF0.059667
aF0.107878
aF0.071606
aF0.12141
aF0.12118
aF0.115856
aF0.109634
aF0.075704
aF0.051062
aF0.111733
aF0.13257
aF0.161926
aF0.079589
aF0.110733
aF0.093154
aF0.057148
aF0.066161
aF0.055346
aF0.054633
aF0.047821
aF0.087404
aF0.136254
aF0.076476
aF0.019512
aF0.014025
aF0.040197
aF0.014339
aF0.02762
aF0.166338
aF0.096417
aF0.076404
aF0.052115
aF0.125557
aF0.057734
aF0.01958
aF0.086025
aF0.077664
aF0.087262
aF0.085597
aF0.082107
aF0.039164
aF0.037184
aF0.048855
aF0.051989
aF0.062016
aF0.087208
aF0.111579
aF0.047426
aF0.057374
aF0.098231
aF0.133169
aF0.028581
aF0.09033
aF0.087804
aF0.051726
aF0.100707
aF0.088166
aF0.145764
aF0.033236
aF0.04789
aF0.051291
aF0.126082
aF0.006071
aF0.029419
aF0.02861
aF0.122364
aF0.011561
aF0.038057
aF0.016904
aF0.109848
aF0.115588
aF0.057846
aF0.021529
aF0.032047
aF0.140561
aF0.031435
aF0.065694
aF0.113851
aF0.033761
aF0.045223
aF0.123036
aF0.016362
aF0.058818
aF0.06544
aF0.06065
aF0.014155
aF0.089204
aF0.024901
aF0.115743
aF0.05841
aF0.097449
aF0.061959
aF0.03561
aF0.024295
aF0.054025
aF0.140636
aF0.099252
aF0.030209
aF0.113157
aF0.051373
aF0.093319
aF0.080046
aF0.079994
aF0.053421
aF0.064772
aF0.047371
aF0.056188
aF0.044125
asS'Slits_computed_wavelengths'
p5
(lp6
cnumpy.core.multiarray
scalar
p7
(cnumpy
dtype
p8
(S'f8'
p9
I0
I1
tp10
Rp11
(I3
S'<'
p12
NNNI-1
I-1
I0
tp13
bS'q\xaf\xc1\x8a\x0f\xa2\xc4@'
p14
tp15
Rp16
ag7
(g11
S'Y?E\xe8\x92\xd8\xc4@'
p17
tp18
Rp19
ag7
(g11
S'\x1e\xcfr\xef\xb1\xdb\xc4@'
p20
tp21
Rp22
ag7
(g11
S'}ad\xb3\x99\xdc\xc4@'
p23
tp24
Rp25
ag7
(g11
S'JJ\xd4\xd0\x81\xe5\xc4@'
p26
tp27
Rp28
ag7
(g11
S'\x11\x97+\x8dt\xeb\xc4@'
p29
tp30
Rp31
ag7
(g11
S'\xfa3\x85\xf7\x80\xf2\xc4@'
p32
tp33
Rp34
ag7
(g11
S'\x04\xa7r&5\xf6\xc4@'
p35
tp36
Rp37
ag7
(g11
S'\xe9\xa1\x91\xd4\xfb\x02\xc5@'
p38
tp39
Rp40
ag7
(g11
S'\x06\x0b\x8c\x9d;\n\xc5@'
p41
tp42
Rp43
ag7
(g11
S"\x8c\x0e'\xaf\x94?\xc5@"
p44
tp45
Rp46
ag7
(g11
S'8\x01\x99G$E\xc5@'
p47
tp48
Rp49
ag7
(g11
S'}\xa9\x0b`Eb\xc5@'
p50
tp51
Rp52
ag7
(g11
S'\xc4\xe9\x0e\xd2c\xb1\xc3@'
p53
tp54
Rp55
ag7
(g11
S'\x13\x9a\xe9\x1d\x84\xb3\xc3@'
p56
tp57
Rp58
ag7
(g11
S'\xb3\x12"u\xa8\xb6\xc3@'
p59
tp60
Rp61
ag7
(g11
S'-\x8e\xbb\x08O\xbf\xc3@'
p62
tp63
Rp64
ag7
(g11
S'\xb0\x9d*\xd3d\xca\xc3@'
p65
tp66
Rp67
ag7
(g11
S'\xb0K\xee\xe3J\xce\xc3@'
p68
tp69
Rp70
ag7
(g11
S'j\xd4p\xf0\xba\xcf\xc3@'
p71
tp72
Rp73
ag7
(g11
S'\xfa\x1fku]\xd9\xc3@'
p74
tp75
Rp76
ag7
(g11
S'\x93u\x19".\xdf\xc3@'
p77
tp78
Rp79
ag7
(g11
S'\\\xbac\x1c\xfd\xe0\xc3@'
p80
tp81
Rp82
ag7
(g11
S"'\xf6\xe2\xf4&\xf5\xc3@"
p83
tp84
Rp85
ag7
(g11
S'B0\xb7\xdaI\xf6\xc3@'
p86
tp87
Rp88
ag7
(g11
S'\x8c\x84\xf6\xd4\x00\xfe\xc3@'
p89
tp90
Rp91
ag7
(g11
S'\xffbA\xfe\xb9\x03\xc4@'
p92
tp93
Rp94
ag7
(g11
S'ua\xa1\xbb\xe1\x06\xc4@'
p95
tp96
Rp97
ag7
(g11
S')\xd3hQ\x9e\x08\xc4@'
p98
tp99
Rp100
ag7
(g11
S'2\xc9p\xdd!\x0b\xc4@'
p101
tp102
Rp103
ag7
(g11
S'1C\xb3\xc4\x18\x0e\xc4@'
p104
tp105
Rp106
ag7
(g11
S'\xfa\xd3\xf92\xd0\x10\xc4@'
p107
tp108
Rp109
ag7
(g11
S'-\xe3\x9f\x1as\x15\xc4@'
p110
tp111
Rp112
ag7
(g11
S'\x13\xebI~j"\xc4@'
p113
tp114
Rp115
ag7
(g11
S'~\x06i\x18\xe5-\xc4@'
p116
tp117
Rp118
ag7
(g11
S'd\\w\x12\x18K\xc4@'
p119
tp120
Rp121
ag7
(g11
S"'\xee\xe7\x9f\xd2W\xc4@"
p122
tp123
Rp124
ag7
(g11
S'I\xd1\x92\x81|\xe4\xc2@'
p125
tp126
Rp127
ag7
(g11
S'\x8aH\x93Y\xd8\xe5\xc2@'
p128
tp129
Rp130
ag7
(g11
S'FDg{\x90\xe6\xc2@'
p131
tp132
Rp133
ag7
(g11
S'd9\xce\xa0=\xe7\xc2@'
p134
tp135
Rp136
ag7
(g11
S'\xe3d\xc8\xf1\xdc\xe7\xc2@'
p137
tp138
Rp139
ag7
(g11
S'\\\xec\xa52\xf8\xe8\xc2@'
p140
tp141
Rp142
ag7
(g11
S'R\xec\x88[\x00\xf2\xc2@'
p143
tp144
Rp145
ag7
(g11
S'\x06\x92\x95\xd2\xa5\x05\xc3@'
p146
tp147
Rp148
ag7
(g11
S'\x18\x0e\xb1\xff\xf3\x08\xc3@'
p149
tp150
Rp151
ag7
(g11
S'\xe5\x19\xc4B\x9b\r\xc3@'
p152
tp153
Rp154
ag7
(g11
S'\xad\xfb\x02}\xfa\x0e\xc3@'
p155
tp156
Rp157
ag7
(g11
S'5~D\xfek\x16\xc3@'
p158
tp159
Rp160
ag7
(g11
S'4@A\x88\xe1!\xc3@'
p161
tp162
Rp163
ag7
(g11
S'\xf9x\xb3l\xe8)\xc3@'
p164
tp165
Rp166
ag7
(g11
S'\xe0`\x18\xbd\xfe*\xc3@'
p167
tp168
Rp169
ag7
(g11
S'\x13d\x03\\*1\xc3@'
p170
tp171
Rp172
ag7
(g11
S'\xa5\xa8\x01\xc0U4\xc3@'
p173
tp174
Rp175
ag7
(g11
S'\xb1&\x8dg\x84<\xc3@'
p176
tp177
Rp178
ag7
(g11
S'&L}\xdc&D\xc3@'
p179
tp180
Rp181
ag7
(g11
S'\xee\x06\xae\xb4\xc9E\xc3@'
p182
tp183
Rp184
ag7
(g11
S'6a\x8a\xb5\xcbH\xc3@'
p185
tp186
Rp187
ag7
(g11
S'j\xad|\x83MO\xc3@'
p188
tp189
Rp190
ag7
(g11
S'\x1b\xa9\x8eI\xd4X\xc3@'
p191
tp192
Rp193
ag7
(g11
S'\xees\xfc\x9b\x12Y\xc3@'
p194
tp195
Rp196
ag7
(g11
S'\xbf\xb2\xcb\xc7\xe5S\xc3@'
p197
tp198
Rp199
ag7
(g11
S'\xa3\xf8h\xf9\xe8]\xc3@'
p200
tp201
Rp202
ag7
(g11
S'\x03\xd6\xff\\Sd\xc3@'
p203
tp204
Rp205
ag7
(g11
S'\xbe\x98\nINk\xc3@'
p206
tp207
Rp208
ag7
(g11
S'\xfbn\xbftmn\xc3@'
p209
tp210
Rp211
ag7
(g11
S'\x0cT\\zno\xc3@'
p212
tp213
Rp214
ag7
(g11
S'\xce\xcf\xbf\xa1\xc2o\xc3@'
p215
tp216
Rp217
ag7
(g11
S'\xfa\x12%=Ip\xc3@'
p218
tp219
Rp220
ag7
(g11
S'.\xbcJ\xa7\xa3u\xc3@'
p221
tp222
Rp223
ag7
(g11
S'\x0b\x02\xe3>^w\xc3@'
p224
tp225
Rp226
ag7
(g11
S'\xe0\xf5-\xe8\ny\xc3@'
p227
tp228
Rp229
ag7
(g11
S'BCw2\x07z\xc3@'
p230
tp231
Rp232
ag7
(g11
S'\x14N\xf2\x12>{\xc3@'
p233
tp234
Rp235
ag7
(g11
S'\xa9\xa18Q\xb8|\xc3@'
p236
tp237
Rp238
ag7
(g11
S'\x04\x81\xfe\xaf\xec\x7f\xc3@'
p239
tp240
Rp241
ag7
(g11
S'\x1e;\x1a3\x95\x81\xc3@'
p242
tp243
Rp244
ag7
(g11
S'U`\xf9j\xbd\x84\xc3@'
p245
tp246
Rp247
ag7
(g11
S'\x01\x04\xfc/\xaa\x8b\xc3@'
p248
tp249
Rp250
ag7
(g11
S'\x82\x8c\xde\x1a\x1f\x12\xc2@'
p251
tp252
Rp253
ag7
(g11
S'|Q\xc0\xde6\x15\xc2@'
p254
tp255
Rp256
ag7
(g11
S'\x98\x81\xd6h\xcb\x18\xc2@'
p257
tp258
Rp259
ag7
(g11
S'D\x1c\x13\xf1\xf5\x1d\xc2@'
p260
tp261
Rp262
ag7
(g11
S'\xe3\t\xbc6\x84$\xc2@'
p263
tp264
Rp265
ag7
(g11
S'\xd4\xe4\x07\xf7\x95&\xc2@'
p266
tp267
Rp268
ag7
(g11
S"~\xdf\xab\x1d\xba'\xc2@"
p269
tp270
Rp271
ag7
(g11
S'!4Y!\xc1-\xc2@'
p272
tp273
Rp274
ag7
(g11
S'\xc0\x0f=\t\xb42\xc2@'
p275
tp276
Rp277
ag7
(g11
S'4\xda\x12v\xf58\xc2@'
p278
tp279
Rp280
ag7
(g11
S'XZ7\xee\x10:\xc2@'
p281
tp282
Rp283
ag7
(g11
S'Fy\x89\xdd\x17;\xc2@'
p284
tp285
Rp286
ag7
(g11
S'\x85\xd2\xea?\x03>\xc2@'
p287
tp288
Rp289
ag7
(g11
S'c\xd3\xb7\x98?@\xc2@'
p290
tp291
Rp292
ag7
(g11
S'\n1\xe4\x88\xaeD\xc2@'
p293
tp294
Rp295
ag7
(g11
S':\xba\x0f\xe4\xa9P\xc2@'
p296
tp297
Rp298
ag7
(g11
S'\xb1\x11\xd7qMS\xc2@'
p299
tp300
Rp301
ag7
(g11
S'>\xd6\xdd;VV\xc2@'
p302
tp303
Rp304
ag7
(g11
S'7\x19\x0e\x9d$W\xc2@'
p305
tp306
Rp307
ag7
(g11
S'\xe7m\x8a\x80&Z\xc2@'
p308
tp309
Rp310
ag7
(g11
S'\xaf\xe6$\xf6\x87[\xc2@'
p311
tp312
Rp313
ag7
(g11
S'\xc2a\xc5\xe8<]\xc2@'
p314
tp315
Rp316
ag7
(g11
S'\x86\xbc\x92$\x8bk\xc2@'
p317
tp318
Rp319
ag7
(g11
S'\x0c\x86\x19\xf6\xf0l\xc2@'
p320
tp321
Rp322
ag7
(g11
S'?\xc4|\xe57y\xc2@'
p323
tp324
Rp325
ag7
(g11
S'v\xf1\xfe\x05]z\xc2@'
p326
tp327
Rp328
ag7
(g11
S'p\x06\x98B\x7f}\xc2@'
p329
tp330
Rp331
ag7
(g11
S'\x0f\xcd\xb6\xd7J\x81\xc2@'
p332
tp333
Rp334
ag7
(g11
S'V\x1a{g\x0c\x83\xc2@'
p335
tp336
Rp337
ag7
(g11
S'r\xd9N9\xae\x8b\xc2@'
p338
tp339
Rp340
ag7
(g11
S'nE!\xd3k\x8c\xc2@'
p341
tp342
Rp343
ag7
(g11
S'\xe72\xba\xf4\x99\x90\xc2@'
p344
tp345
Rp346
ag7
(g11
S'\xfd\x94\xd6\xe3\x8e\xa8\xc2@'
p347
tp348
Rp349
ag7
(g11
S'\xe6\xc6D\x9bo\xac\xc2@'
p350
tp351
Rp352
ag7
(g11
S'Q\xdfX\x93\xce\xaf\xc2@'
p353
tp354
Rp355
ag7
(g11
S'j\x0eR\xbaL\xb7\xc2@'
p356
tp357
Rp358
ag7
(g11
S'N\x9c\xc5\x7fO\xb9\xc2@'
p359
tp360
Rp361
ag7
(g11
S'5E;nUR\xc1@'
p362
tp363
Rp364
ag7
(g11
S'N\x82\xc6\x9a2U\xc1@'
p365
tp366
Rp367
ag7
(g11
S'\x1d\x7f5Og\\\xc1@'
p368
tp369
Rp370
ag7
(g11
S'?bV\xdc\xe5\\\xc1@'
p371
tp372
Rp373
ag7
(g11
S'?\x9e\xd3 L^\xc1@'
p374
tp375
Rp376
ag7
(g11
S'SChSsa\xc1@'
p377
tp378
Rp379
ag7
(g11
S'\xe5\x86\xee\xcf\x9fd\xc1@'
p380
tp381
Rp382
ag7
(g11
S'f\xf7\xfe\xcbWg\xc1@'
p383
tp384
Rp385
ag7
(g11
S'v\x7f\x17\x07\x84q\xc1@'
p386
tp387
Rp388
ag7
(g11
S'\xf4\x80\x97>\xcdm\xc1@'
p389
tp390
Rp391
ag7
(g11
S'D\x06\xee\x0c\xb5l\xc1@'
p392
tp393
Rp394
ag7
(g11
S"'x(RHz\xc1@"
p395
tp396
Rp397
ag7
(g11
S'\x1c\x1b;5\xb8}\xc1@'
p398
tp399
Rp400
ag7
(g11
S'\xa0\xfb\xa7\xfb\x8a\x7f\xc1@'
p401
tp402
Rp403
ag7
(g11
S'\xaeg\xd4(\xe5\x80\xc1@'
p404
tp405
Rp406
ag7
(g11
S'\x04\\\xe3\x1f\x0c\x82\xc1@'
p407
tp408
Rp409
ag7
(g11
S'\xf8\x18\xdc*\xae\x83\xc1@'
p410
tp411
Rp412
ag7
(g11
S'\x17\xe5\xd7 \x88\x85\xc1@'
p413
tp414
Rp415
ag7
(g11
S'\xe5.K\x8a\xcc\x84\xc1@'
p416
tp417
Rp418
ag7
(g11
S'\xe7\xdb\x7f\xe7=\x8d\xc1@'
p419
tp420
Rp421
ag7
(g11
S'j\xf5_\xc9\xf9\x90\xc1@'
p422
tp423
Rp424
ag7
(g11
S'Z\xa4\xe8\xdd\xcf\x91\xc1@'
p425
tp426
Rp427
ag7
(g11
S'y\t\xe2\xe4\xc2\x92\xc1@'
p428
tp429
Rp430
ag7
(g11
S'\xf7\xf3\xd5\xe9\x0b\x98\xc1@'
p431
tp432
Rp433
ag7
(g11
S'_U\x1aE1\x9c\xc1@'
p434
tp435
Rp436
ag7
(g11
S'\xa8g\x10\xa1\x9f\x9c\xc1@'
p437
tp438
Rp439
ag7
(g11
S'C\xaa\xe0\x0b\xd3\xa3\xc1@'
p440
tp441
Rp442
ag7
(g11
S'\xb0\xd7_O\xde\xa5\xc1@'
p443
tp444
Rp445
ag7
(g11
S'.\xfb\xcf\x9d\xd3\xa6\xc1@'
p446
tp447
Rp448
ag7
(g11
S'\xec \xb7u\xf1\xa7\xc1@'
p449
tp450
Rp451
ag7
(g11
S'5$\xe3\x1d\x02\xac\xc1@'
p452
tp453
Rp454
ag7
(g11
S'7\xd2\x0f\xff\xa5\xae\xc1@'
p455
tp456
Rp457
ag7
(g11
S'_jSH=\xb2\xc1@'
p458
tp459
Rp460
ag7
(g11
S'\xae\x9b\x1b9\xd8\xb3\xc1@'
p461
tp462
Rp463
ag7
(g11
S'\x19\xb0y\xf09\xb5\xc1@'
p464
tp465
Rp466
ag7
(g11
S'=,\xf9=|\xb8\xc1@'
p467
tp468
Rp469
ag7
(g11
S'\x1d$\xb4\xe6\x94\xb9\xc1@'
p470
tp471
Rp472
ag7
(g11
S'\x87?4\xdb\x89\xbe\xc1@'
p473
tp474
Rp475
ag7
(g11
S'\xd9xh\x0cW\xc3\xc1@'
p476
tp477
Rp478
ag7
(g11
S'\x90\xe5\x8d\xb4d\xe3\xc1@'
p479
tp480
Rp481
ag7
(g11
S'9\xcf7\xf1\n\xe4\xc1@'
p482
tp483
Rp484
ag7
(g11
S'\x1fR\xcef\xd6\xe6\xc1@'
p485
tp486
Rp487
ag7
(g11
S'\x18\x82%\\J\xe9\xc1@'
p488
tp489
Rp490
ag7
(g11
S'\x1c\xdf\xb3C5\xed\xc1@'
p491
tp492
Rp493
ag7
(g11
S'\x11\x97\xe6\xac\xc0\xed\xc1@'
p494
tp495
Rp496
ag7
(g11
S'rx\xc3\x92\x1d\xf5\xc1@'
p497
tp498
Rp499
ag7
(g11
S'\xd6\xb9\xd9\xbf&\xf7\xc1@'
p500
tp501
Rp502
ag7
(g11
S'\x93\xb2U\xd2\xad\xad\xc0@'
p503
tp504
Rp505
ag7
(g11
S'e\x080\x80\xbf\xaf\xc0@'
p506
tp507
Rp508
ag7
(g11
S'g\xf3+\xee\x17\xb0\xc0@'
p509
tp510
Rp511
ag7
(g11
S'\xde\xa51\xf4h\xb4\xc0@'
p512
tp513
Rp514
ag7
(g11
S'=\xbf\x02\xf8_\xb5\xc0@'
p515
tp516
Rp517
ag7
(g11
S'\xea=\xb1\xd1|\xbe\xc0@'
p518
tp519
Rp520
ag7
(g11
S'/f\\\x05\x8c\xc0\xc0@'
p521
tp522
Rp523
ag7
(g11
S'M\xd30p\xe1\xc0\xc0@'
p524
tp525
Rp526
ag7
(g11
S'C\xbd\x88R4\xc4\xc0@'
p527
tp528
Rp529
ag7
(g11
S'vy\xd2\x19t\xc4\xc0@'
p530
tp531
Rp532
ag7
(g11
S'\xd4qt^5\xc5\xc0@'
p533
tp534
Rp535
ag7
(g11
S'\xd7\x1d7\xcek\xc6\xc0@'
p536
tp537
Rp538
ag7
(g11
S'}kVN\xb8\xc7\xc0@'
p539
tp540
Rp541
ag7
(g11
S'\x11<\xef\x97"\xc8\xc0@'
p542
tp543
Rp544
ag7
(g11
S'\xf6^\x06\xfd\x9f\xcc\xc0@'
p545
tp546
Rp547
ag7
(g11
S'H87\x87\xb2\xce\xc0@'
p548
tp549
Rp550
ag7
(g11
S'\xbe\x14M\xfa \xd6\xc0@'
p551
tp552
Rp553
ag7
(g11
S'\xb2\x8f!\x0cs\xdd\xc0@'
p554
tp555
Rp556
ag7
(g11
S'\xc2p\xfc\xc4\x0e\xdf\xc0@'
p557
tp558
Rp559
ag7
(g11
S'\x12\x0fk \x8d\xdf\xc0@'
p560
tp561
Rp562
ag7
(g11
S'\x0c\x80\xa0\xa2W\xe1\xc0@'
p563
tp564
Rp565
ag7
(g11
S'\x8c\x9a\x8cEx\xe2\xc0@'
p566
tp567
Rp568
ag7
(g11
S'\xa7c6<\x7f\xe4\xc0@'
p569
tp570
Rp571
ag7
(g11
S'e\xba\x8a\x99\x05\xf3\xc0@'
p572
tp573
Rp574
ag7
(g11
S'd$\xe9\xcc\xd7\xf7\xc0@'
p575
tp576
Rp577
ag7
(g11
S'\xe3\x15\xe2x@\x00\xc1@'
p578
tp579
Rp580
ag7
(g11
S'\x02\x9cS\x88\x93\x01\xc1@'
p581
tp582
Rp583
ag7
(g11
S'C\xa5\x8c\x8e2\x02\xc1@'
p584
tp585
Rp586
ag7
(g11
S')(<0 \x03\xc1@'
p587
tp588
Rp589
ag7
(g11
S'\xed{\x04\xa5\xb7\x08\xc1@'
p590
tp591
Rp592
ag7
(g11
S'\x84\x00\xad\x06\x14\x0e\xc1@'
p593
tp594
Rp595
ag7
(g11
S'\xa2\xd6\xfb\x85\xea\x0e\xc1@'
p596
tp597
Rp598
ag7
(g11
S'z\x08\xf5y5\x10\xc1@'
p599
tp600
Rp601
ag7
(g11
S'~m\x98o\xe4\x15\xc1@'
p602
tp603
Rp604
ag7
(g11
S'y\x9a=\xdev\x16\xc1@'
p605
tp606
Rp607
ag7
(g11
S'\x8a\xaf\x15f\xf3\x1a\xc1@'
p608
tp609
Rp610
ag7
(g11
S'\xffN\xd4e\x1b\x1c\xc1@'
p611
tp612
Rp613
ag7
(g11
S'w\x97\x99^\x80\x1c\xc1@'
p614
tp615
Rp616
ag7
(g11
S'\xfc\x85\x9b\xa1:\x1f\xc1@'
p617
tp618
Rp619
ag7
(g11
S'\xf5\x81\x14\xcf\xd8!\xc1@'
p620
tp621
Rp622
ag7
(g11
S'VGv{B"\xc1@'
p623
tp624
Rp625
ag7
(g11
S'\xf9\x85\x9e\n\xa0#\xc1@'
p626
tp627
Rp628
ag7
(g11
S'+]\x04s*(\xc1@'
p629
tp630
Rp631
ag7
(g11
S'\x14\xd3X\x03s/\xc1@'
p632
tp633
Rp634
ag7
(g11
S'JN\xf7\xca\x065\xc1@'
p635
tp636
Rp637
ag7
(g11
S'neY\x1b\x048\xc1@'
p638
tp639
Rp640
ag7
(g11
S':\xc5\x90\xf6\xca8\xc1@'
p641
tp642
Rp643
ag7
(g11
S'\x8a4\x7f929\xc1@'
p644
tp645
Rp646
ag7
(g11
S'\xc0\x84\x84\x11.:\xc1@'
p647
tp648
Rp649
ag7
(g11
S'\xaf\x05\xf7/ID\xc1@'
p650
tp651
Rp652
ag7
(g11
S'yT\xde\xc4\xf9D\xc1@'
p653
tp654
Rp655
ag7
(g11
S'\xceEI\xe5\xd0\n\xc0@'
p656
tp657
Rp658
ag7
(g11
S')\xc0\x96\xe4s\x0c\xc0@'
p659
tp660
Rp661
ag7
(g11
S'G\xb9\xa7e-\x10\xc0@'
p662
tp663
Rp664
ag7
(g11
S'\x8d\xe2\xcd\xfb\xe2\x10\xc0@'
p665
tp666
Rp667
ag7
(g11
S'(\x08\x8b:\xa2\x11\xc0@'
p668
tp669
Rp670
ag7
(g11
S'T\xc2\xbc\xad\x81\x13\xc0@'
p671
tp672
Rp673
ag7
(g11
S'\xb7\xc4\x13\xd9U\x14\xc0@'
p674
tp675
Rp676
ag7
(g11
S'I\xa5\x8f\xa2\xf1\x16\xc0@'
p677
tp678
Rp679
ag7
(g11
S'\x9e\x02sP\xf2\x1c\xc0@'
p680
tp681
Rp682
ag7
(g11
S'\xbc\xbf\xfe\xf9$\x1e\xc0@'
p683
tp684
Rp685
ag7
(g11
S'F\x94\xa5\x1d\xbd(\xc0@'
p686
tp687
Rp688
ag7
(g11
S'\xb7W\xcd\xc4\x92)\xc0@'
p689
tp690
Rp691
ag7
(g11
S'UC\x9c\x91\x10.\xc0@'
p692
tp693
Rp694
ag7
(g11
S'+\xc1<\xe3T0\xc0@'
p695
tp696
Rp697
ag7
(g11
S'S\xb3\xe8\x05r4\xc0@'
p698
tp699
Rp700
ag7
(g11
S'\xae\x84Vm\xd76\xc0@'
p701
tp702
Rp703
ag7
(g11
S'\x98\xcf\'\x89"8\xc0@'
p704
tp705
Rp706
ag7
(g11
S'\x83\x84\x88\xf5\x9d;\xc0@'
p707
tp708
Rp709
ag7
(g11
S'p\xef\xf8\x95V@\xc0@'
p710
tp711
Rp712
ag7
(g11
S'U0pE\x13E\xc0@'
p713
tp714
Rp715
ag7
(g11
S'X\x9b\x9d\xf5\xf3E\xc0@'
p716
tp717
Rp718
ag7
(g11
S"\xf1'\xc5\x05>S\xc0@"
p719
tp720
Rp721
ag7
(g11
S'\xbd\xc2S\xbd\xe1V\xc0@'
p722
tp723
Rp724
ag7
(g11
S'\xb5\xe5k\xfb\xd8W\xc0@'
p725
tp726
Rp727
ag7
(g11
S'\x9d\x9c\xef*M`\xc0@'
p728
tp729
Rp730
ag7
(g11
S'\xa0z:\xa2\xb3~\xc0@'
p731
tp732
Rp733
ag7
(g11
S'j\xaa\xd9n\x16\x7f\xc0@'
p734
tp735
Rp736
ag7
(g11
S'\x92a\xae\xe8\xad\x87\xc0@'
p737
tp738
Rp739
ag7
(g11
S'U\xdd\x1c\x9d\xc5\x8b\xc0@'
p740
tp741
Rp742
ag7
(g11
S' \xcd>\xb8+\x8f\xc0@'
p743
tp744
Rp745
ag7
(g11
S'\x96\xa5F\xed,\x94\xc0@'
p746
tp747
Rp748
ag7
(g11
S'\x87j\xabo\x03\x95\xc0@'
p749
tp750
Rp751
ag7
(g11
S'\x90\x127o!\x96\xc0@'
p752
tp753
Rp754
ag7
(g11
S'\x13_\x15\x8a$\x98\xc0@'
p755
tp756
Rp757
ag7
(g11
S'\xe3\x99\x1d\x16\xa5\xee\xbe@'
p758
tp759
Rp760
ag7
(g11
S'N\xc5\x1b\xb9\xe2\xf1\xbe@'
p761
tp762
Rp763
ag7
(g11
S'x\x12\xcf6\x10\xf7\xbe@'
p764
tp765
Rp766
ag7
(g11
S'\xd0\x87\x8fR7\xfc\xbe@'
p767
tp768
Rp769
ag7
(g11
S'\xbd\x15\x98\x17s\x01\xbf@'
p770
tp771
Rp772
ag7
(g11
S'\x1fM\xf2\x04\xdf#\xbf@'
p773
tp774
Rp775
ag7
(g11
S'q}\x85)a$\xbf@'
p776
tp777
Rp778
ag7
(g11
S'\xd8\xeb\x13\x8c^(\xbf@'
p779
tp780
Rp781
ag7
(g11
S'#\xbeV\x0eM)\xbf@'
p782
tp783
Rp784
ag7
(g11
S'\xd4C\x12\x95\xcc*\xbf@'
p785
tp786
Rp787
ag7
(g11
S'u\x94\x9b\x8cF/\xbf@'
p788
tp789
Rp790
ag7
(g11
S'\x0e\xb1\x8dC\x111\xbf@'
p791
tp792
Rp793
ag7
(g11
S'\x12\x9c\xa6\x91\xd13\xbf@'
p794
tp795
Rp796
ag7
(g11
S'\xfa?.\rg9\xbf@'
p797
tp798
Rp799
ag7
(g11
S'f_\xeeio`\xbf@'
p800
tp801
Rp802
ag7
(g11
S'\x00\x11\xf5\xc7.e\xbf@'
p803
tp804
Rp805
ag7
(g11
S'\x06\x88\xcax\x05n\xbf@'
p806
tp807
Rp808
ag7
(g11
S'\x95\xb55\x10!l\xbf@'
p809
tp810
Rp811
ag7
(g11
S'\xb2K\xb7\xa4\xd4t\xbf@'
p812
tp813
Rp814
ag7
(g11
S'\xc7j\x10\x0en\x82\xbf@'
p815
tp816
Rp817
ag7
(g11
S'\xeb\x16=LM\xca\xbf@'
p818
tp819
Rp820
ag7
(g11
S'Y\xa5\xd3G\x10\xcf\xbf@'
p821
tp822
Rp823
ag7
(g11
S'\x02\x02\xdb\xd4X\xdf\xbf@'
p824
tp825
Rp826
ag7
(g11
S'\x1bv\xfd6\xdf\xe1\xbf@'
p827
tp828
Rp829
ag7
(g11
S'?\x9f{\xec\xe8\xe2\xbf@'
p830
tp831
Rp832
ag7
(g11
S'N\x97\x0f\xff\x9a\xe9\xbf@'
p833
tp834
Rp835
ag7
(g11
S'[\x80\x1b\xa9\xa1\xea\xbf@'
p836
tp837
Rp838
ag7
(g11
S'WC\xc2m\xe8\xee\xbf@'
p839
tp840
Rp841
ag7
(g11
S'\xa5\xe7\xf4I\xad\xfa\xbf@'
p842
tp843
Rp844
ag7
(g11
S'\xde\xaa\x1bm\x0f\x01\xc0@'
p845
tp846
Rp847
ag7
(g11
S'\xd2\x94\xc8:H\x01\xc0@'
p848
tp849
Rp850
ag7
(g11
S'\xd7\x14\xf3\x1c\xee\x04\xc0@'
p851
tp852
Rp853
ag7
(g11
S'2\xd1\x0c\xc9\xa8\x05\xc0@'
p854
tp855
Rp856
ag7
(g11
S'\xee\xc4\xd6e\x8e\x0c\xc0@'
p857
tp858
Rp859
ag7
(g11
S'\x82\xa2v\xecE\x0e\xc0@'
p860
tp861
Rp862
ag7
(g11
S'\xf7;\xa2\x1c2\x10\xc0@'
p863
tp864
Rp865
ag7
(g11
S'\\\xd4\xa7\x06\x91\x11\xc0@'
p866
tp867
Rp868
ag7
(g11
S'\xd2\xc9\xba\xc9\x08\xdf\xbd@'
p869
tp870
Rp871
ag7
(g11
S'\x97/\x02]\x12\xe4\xbd@'
p872
tp873
Rp874
ag7
(g11
S'\xd8\x1fr\x84\xa1\xe5\xbd@'
p875
tp876
Rp877
ag7
(g11
S'Nl]V\x0e\xea\xbd@'
p878
tp879
Rp880
ag7
(g11
S'\x98\x99\x95\xc7\xad\xec\xbd@'
p881
tp882
Rp883
ag7
(g11
S';\x85E\xed\x11\xee\xbd@'
p884
tp885
Rp886
ag7
(g11
S'`\xef&$\xc5\xf2\xbd@'
p887
tp888
Rp889
ag7
(g11
S'\x19\xa6>9\x8d\xf5\xbd@'
p890
tp891
Rp892
ag7
(g11
S'\x8b\x01dl\xd5\xfd\xbd@'
p893
tp894
Rp895
ag7
(g11
S'\xf77\xf9\x1c\xf8\x04\xbe@'
p896
tp897
Rp898
ag7
(g11
S'd\xd4\xf1\x00q\x07\xbe@'
p899
tp900
Rp901
ag7
(g11
S'\xc7&\xeb\xa4\x00\x10\xbe@'
p902
tp903
Rp904
ag7
(g11
S'\x19\x12\xed\x0bu\x10\xbe@'
p905
tp906
Rp907
ag7
(g11
S'\x0e\xdau\x00\xa8\x11\xbe@'
p908
tp909
Rp910
ag7
(g11
S'X\x04\x08\xcc\x88\x18\xbe@'
p911
tp912
Rp913
ag7
(g11
S'\xc9V\x8c[\x07\x1e\xbe@'
p914
tp915
Rp916
ag7
(g11
S'T\xb6I](>\xbe@'
p917
tp918
Rp919
ag7
(g11
S'k<\xf6\xe1\x86G\xbe@'
p920
tp921
Rp922
ag7
(g11
S'I\xf6R\xd0\xb0J\xbe@'
p923
tp924
Rp925
ag7
(g11
S'\xfb&o\x1a\xca[\xbe@'
p926
tp927
Rp928
ag7
(g11
S'=O!\xa6\x06^\xbe@'
p929
tp930
Rp931
ag7
(g11
S'\xb7\x9d\xc2r$f\xbe@'
p932
tp933
Rp934
ag7
(g11
S'j\x81\xbb\x7f\xbal\xbe@'
p935
tp936
Rp937
ag7
(g11
S'B\xc4\nH6s\xbe@'
p938
tp939
Rp940
ag7
(g11
S'\x95o\xd5\x00?\x86\xbe@'
p941
tp942
Rp943
ag7
(g11
S'\xa0Sk\x8e\xce\x89\xbe@'
p944
tp945
Rp946
ag7
(g11
S'\x94\xa1\xe10N\x8e\xbe@'
p947
tp948
Rp949
ag7
(g11
S'\x90w\xdfmr\x8f\xbe@'
p950
tp951
Rp952
ag7
(g11
S'\xf8\xae\xa2\x1b-\x91\xbe@'
p953
tp954
Rp955
ag7
(g11
S'\xba\x9c\xc3\x03a\x9a\xbe@'
p956
tp957
Rp958
ag7
(g11
S'\xb3\x06\xe5\xc36\x9c\xbe@'
p959
tp960
Rp961
ag7
(g11
S'\xeb\xaa\xd9^t\xa1\xbe@'
p962
tp963
Rp964
ag7
(g11
S'i\x867;\x98\xa7\xbe@'
p965
tp966
Rp967
ag7
(g11
S'\x18]\xd3K_\xa8\xbe@'
p968
tp969
Rp970
ag7
(g11
S'\\ \x06\x1dc\xb5\xbe@'
p971
tp972
Rp973
ag7
(g11
S'\xd3p\x06\xd9D\xb8\xbe@'
p974
tp975
Rp976
ag7
(g11
S'\xa3-\xf8\x80\xcf\xb9\xbe@'
p977
tp978
Rp979
ag7
(g11
S'\xfc\xbda\x8b1\xbc\xbe@'
p980
tp981
Rp982
ag7
(g11
S"\xb6\x8fs\xe8'\xce\xbe@"
p983
tp984
Rp985
ag7
(g11
S'z\xe3B\xe8D\xd3\xbe@'
p986
tp987
Rp988
ag7
(g11
S'_\xb7\x14\xab{\xdb\xbe@'
p989
tp990
Rp991
ag7
(g11
S'\xaew\xb0\x0c\x1d\xdc\xbe@'
p992
tp993
Rp994
ag7
(g11
S'\x9a\x9e\xc0\x9c\x05\xe6\xbe@'
p995
tp996
Rp997
ag7
(g11
S"(\xee\xae\xb5'\xec\xbe@"
p998
tp999
Rp1000
ag7
(g11
S'\x0cP\x01\x0c\xc5\xef\xbe@'
p1001
tp1002
Rp1003
ag7
(g11
S'\x88\xbe\xea\xe3\xfc\xf6\xbe@'
p1004
tp1005
Rp1006
ag7
(g11
S'jc\x85q\x97\x01\xbf@'
p1007
tp1008
Rp1009
ag7
(g11
S'\xc5W\x14\xbc\xb7\xe0\xbc@'
p1010
tp1011
Rp1012
ag7
(g11
S'\x17AQ\xfc\xfd\xe9\xbc@'
p1013
tp1014
Rp1015
ag7
(g11
S'\x9a\x07\x05n\x00\xf4\xbc@'
p1016
tp1017
Rp1018
ag7
(g11
S'=E<wV\xfa\xbc@'
p1019
tp1020
Rp1021
ag7
(g11
S'*\x85\x06\xc9\x1d\xfe\xbc@'
p1022
tp1023
Rp1024
ag7
(g11
S'\xe3\x9a\xf9>\xf9\x00\xbd@'
p1025
tp1026
Rp1027
ag7
(g11
S']\xb5\x11\x8e\xb5\x04\xbd@'
p1028
tp1029
Rp1030
ag7
(g11
S'93\xcc(\x00\x06\xbd@'
p1031
tp1032
Rp1033
ag7
(g11
S'\x9e6\xa6R,\x0b\xbd@'
p1034
tp1035
Rp1036
ag7
(g11
S'\x03\xdcU\xab1\x0c\xbd@'
p1037
tp1038
Rp1039
ag7
(g11
S'S"*"\x80\x14\xbd@'
p1040
tp1041
Rp1042
ag7
(g11
S'\xf5O\xb7\x98\xae\x17\xbd@'
p1043
tp1044
Rp1045
ag7
(g11
S'\x9e6\xa6R,\x0b\xbd@'
p1046
tp1047
Rp1048
ag7
(g11
S'\x03\xdcU\xab1\x0c\xbd@'
p1049
tp1050
Rp1051
ag7
(g11
S'S"*"\x80\x14\xbd@'
p1052
tp1053
Rp1054
ag7
(g11
S'\xf5O\xb7\x98\xae\x17\xbd@'
p1055
tp1056
Rp1057
ag7
(g11
S'\x08\xf1@~\x02/\xbd@'
p1058
tp1059
Rp1060
ag7
(g11
S'\xdcg\x02r59\xbd@'
p1061
tp1062
Rp1063
ag7
(g11
S'\xfc\xf7\xc0\xc7\x83;\xbd@'
p1064
tp1065
Rp1066
ag7
(g11
S'3VB\x16\xfc;\xbd@'
p1067
tp1068
Rp1069
ag7
(g11
S'n:\xd3y\x86@\xbd@'
p1070
tp1071
Rp1072
ag7
(g11
S'a\x98\x13{\x94C\xbd@'
p1073
tp1074
Rp1075
ag7
(g11
S'u\xa3\xff\xf8\x15V\xbd@'
p1076
tp1077
Rp1078
ag7
(g11
S'\xc1\x04\xdf\x91)_\xbd@'
p1079
tp1080
Rp1081
ag7
(g11
S'\x1e\x7f\xe3\x7f\xc7`\xbd@'
p1082
tp1083
Rp1084
ag7
(g11
S'j\x12:H\xffb\xbd@'
p1085
tp1086
Rp1087
ag7
(g11
S's\x84\xe8\xb3ke\xbd@'
p1088
tp1089
Rp1090
ag7
(g11
S'\x07\x16m\xb5|f\xbd@'
p1091
tp1092
Rp1093
ag7
(g11
S'*\xa2C\xecJh\xbd@'
p1094
tp1095
Rp1096
ag7
(g11
S'\xc5\xd0\x85:\x80i\xbd@'
p1097
tp1098
Rp1099
ag7
(g11
S'\xa2\x02Q\xba\xf6i\xbd@'
p1100
tp1101
Rp1102
ag7
(g11
S'\xfa\xf2\x03\x04\x08k\xbd@'
p1103
tp1104
Rp1105
ag7
(g11
S'\xb1\x82\x06\x96Hp\xbd@'
p1106
tp1107
Rp1108
ag7
(g11
S'\xf7\x83R>Xq\xbd@'
p1109
tp1110
Rp1111
ag7
(g11
S'L\x9d\x9e\xc7ct\xbd@'
p1112
tp1113
Rp1114
ag7
(g11
S'i=\x9d\xab(}\xbd@'
p1115
tp1116
Rp1117
ag7
(g11
S'\x9a\xecHY\xf2\x8e\xbd@'
p1118
tp1119
Rp1120
ag7
(g11
S'\xe7\xc0"v\x85\x8f\xbd@'
p1121
tp1122
Rp1123
ag7
(g11
S'\xbb\x1d \xe9R\x91\xbd@'
p1124
tp1125
Rp1126
ag7
(g11
S'\xeboF|\x9e\xa1\xbd@'
p1127
tp1128
Rp1129
ag7
(g11
S'w\x9e)\xa1\n\xa5\xbd@'
p1130
tp1131
Rp1132
ag7
(g11
S'w\x95k\x0b\x14\xae\xbd@'
p1133
tp1134
Rp1135
ag7
(g11
S'L\x920\xcd\xce\xb1\xbd@'
p1136
tp1137
Rp1138
ag7
(g11
S'\x19\x99\xab\x03d\xb6\xbd@'
p1139
tp1140
Rp1141
ag7
(g11
S'v\x1d4\x01\xf1\xb6\xbd@'
p1142
tp1143
Rp1144
ag7
(g11
S'\x14\xc6\xa0!\xb0\xb7\xbd@'
p1145
tp1146
Rp1147
ag7
(g11
S'\xb6t\xb2\xe6\xc7\xb8\xbd@'
p1148
tp1149
Rp1150
ag7
(g11
S'\xbe\x06l\xf4\xb3\xbb\xbd@'
p1151
tp1152
Rp1153
ag7
(g11
S'N\x9c\x0bC;\xc2\xbd@'
p1154
tp1155
Rp1156
ag7
(g11
S':\xbc\x97;\x0e\xcb\xbd@'
p1157
tp1158
Rp1159
ag7
(g11
S'r\xd7g\xe0\xc8\xcc\xbd@'
p1160
tp1161
Rp1162
ag7
(g11
S'\xbb\xcf;Z\x01\xdf\xbd@'
p1163
tp1164
Rp1165
ag7
(g11
S'i\x07\xf0]\x1d\xe3\xbd@'
p1166
tp1167
Rp1168
ag7
(g11
S'NE\xf6Nv\xe3\xbd@'
p1169
tp1170
Rp1171
ag7
(g11
S'\x8b\xdeo,\x1b\xe4\xbd@'
p1172
tp1173
Rp1174
ag7
(g11
S'\x83!\xa7j\xaa\xe5\xbd@'
p1175
tp1176
Rp1177
ag7
(g11
S'\xef\n\x1d\xa1\x85\xe6\xbd@'
p1178
tp1179
Rp1180
ag7
(g11
S'\x94\xba\x00\x11\xee\xe9\xbd@'
p1181
tp1182
Rp1183
ag7
(g11
S'\xfd\xba<\x82\xcc\xeb\xbd@'
p1184
tp1185
Rp1186
ag7
(g11
S'\x9d5\xba\xb6\x8c\xec\xbd@'
p1187
tp1188
Rp1189
ag7
(g11
S'Q\x9e\x94\xd2\x01\xed\xbd@'
p1190
tp1191
Rp1192
ag7
(g11
S'\xc0\xc1\\[\xb3\xf0\xbd@'
p1193
tp1194
Rp1195
ag7
(g11
S'\x1bH\r\xe1\xd3\xf5\xbd@'
p1196
tp1197
Rp1198
ag7
(g11
S'l{\x96\x02\x05\xfc\xbd@'
p1199
tp1200
Rp1201
ag7
(g11
S'q\xfb\x1b\xe9\x96\xf6\xbb@'
p1202
tp1203
Rp1204
ag7
(g11
S'\xcfk\x90kM\xfa\xbb@'
p1205
tp1206
Rp1207
ag7
(g11
S'$\x83\xb8_\xe0\x00\xbc@'
p1208
tp1209
Rp1210
ag7
(g11
S'\x04\xd6\x0b\xfd(\x05\xbc@'
p1211
tp1212
Rp1213
ag7
(g11
S'\xed\x1e\xf8\xb3i\n\xbc@'
p1214
tp1215
Rp1216
ag7
(g11
S'\x15\xf2\x95\xf5\xea\r\xbc@'
p1217
tp1218
Rp1219
ag7
(g11
S'\tGpUE\x13\xbc@'
p1220
tp1221
Rp1222
ag7
(g11
S'\xdbA\xbfC \x14\xbc@'
p1223
tp1224
Rp1225
ag7
(g11
S'\xe8\xf1?\x99\xe7\x16\xbc@'
p1226
tp1227
Rp1228
ag7
(g11
S'2\xe0\xa4%w\x17\xbc@'
p1229
tp1230
Rp1231
ag7
(g11
S'\x95\x92\xcb\xf4\xd6\x1c\xbc@'
p1232
tp1233
Rp1234
ag7
(g11
S'\xeb\xa0`\xf1\xc1\x1f\xbc@'
p1235
tp1236
Rp1237
ag7
(g11
S"\xd0\x9d\xda\xb9O'\xbc@"
p1238
tp1239
Rp1240
ag7
(g11
S"\xd4\xa0\xe8\x1d\xa7'\xbc@"
p1241
tp1242
Rp1243
ag7
(g11
S'\xa94Nz\x7f,\xbc@'
p1244
tp1245
Rp1246
ag7
(g11
S'\x16\xef\x1c\xb2\xdd1\xbc@'
p1247
tp1248
Rp1249
ag7
(g11
S'\xcc\xdanX\xbe2\xbc@'
p1250
tp1251
Rp1252
ag7
(g11
S';u\x9b\x19\xaf=\xbc@'
p1253
tp1254
Rp1255
ag7
(g11
S'\x92\xc50#\xe7>\xbc@'
p1256
tp1257
Rp1258
ag7
(g11
S'\x91\xf7j9*A\xbc@'
p1259
tp1260
Rp1261
ag7
(g11
S'\x9e\x15*\x7f\x8aF\xbc@'
p1262
tp1263
Rp1264
ag7
(g11
S'>T\xf1:\xf4G\xbc@'
p1265
tp1266
Rp1267
ag7
(g11
S'\xd8.\xa8\xd4\xecI\xbc@'
p1268
tp1269
Rp1270
ag7
(g11
S'\x88\xa3[\xe8\x7fL\xbc@'
p1271
tp1272
Rp1273
ag7
(g11
S'M\x18\\t\xe7M\xbc@'
p1274
tp1275
Rp1276
ag7
(g11
S'\xa1\x93\x02\x89\x98P\xbc@'
p1277
tp1278
Rp1279
ag7
(g11
S'%zH\x01kT\xbc@'
p1280
tp1281
Rp1282
ag7
(g11
S']\x13F\x15\x0ba\xbc@'
p1283
tp1284
Rp1285
ag7
(g11
S'\xeeX\x99\x95vf\xbc@'
p1286
tp1287
Rp1288
ag7
(g11
S'\xaf\xbf\x0c\xbc\x0ct\xbc@'
p1289
tp1290
Rp1291
ag7
(g11
S'!5\x9d(\xc0t\xbc@'
p1292
tp1293
Rp1294
ag7
(g11
S'\x9c\x023\xff=u\xbc@'
p1295
tp1296
Rp1297
ag7
(g11
S'\xb1\xa2e\xbc\xa9\x8f\xbc@'
p1298
tp1299
Rp1300
ag7
(g11
S'\xa2\x14\x94d\xd8\x93\xbc@'
p1301
tp1302
Rp1303
ag7
(g11
S'\x02i\xb90\n\x97\xbc@'
p1304
tp1305
Rp1306
ag7
(g11
S'}B\x851G\x9a\xbc@'
p1307
tp1308
Rp1309
ag7
(g11
S'B\x88\xd9S\xa2\x9c\xbc@'
p1310
tp1311
Rp1312
ag7
(g11
S"\xab'\x8d\xd6 \xa0\xbc@"
p1313
tp1314
Rp1315
ag7
(g11
S'\xbd\xc9\xa4\xad\x96\xa1\xbc@'
p1316
tp1317
Rp1318
ag7
(g11
S'\xc2\xdb\xfc\xd9\x93\xa8\xbc@'
p1319
tp1320
Rp1321
ag7
(g11
S'\x9b\x1ew\xeb\xfb\xac\xbc@'
p1322
tp1323
Rp1324
ag7
(g11
S'\xe1\xec&)8\xb1\xbc@'
p1325
tp1326
Rp1327
ag7
(g11
S'$\x01\x99\x8a\xc0\xb3\xbc@'
p1328
tp1329
Rp1330
ag7
(g11
S'\xd8y\xc8\x96\x7f\xb6\xbc@'
p1331
tp1332
Rp1333
ag7
(g11
S'S/\xc0\x02d\xb9\xbc@'
p1334
tp1335
Rp1336
ag7
(g11
S't\xe1j\x15u\xbc\xbc@'
p1337
tp1338
Rp1339
ag7
(g11
S'M\xef\x9d\x8a\xd5\xc6\xbc@'
p1340
tp1341
Rp1342
ag7
(g11
S'\x83\xa5\xcdm{\xcc\xbc@'
p1343
tp1344
Rp1345
ag7
(g11
S'\xb3%\xe5\xa2\\\xd9\xbc@'
p1346
tp1347
Rp1348
ag7
(g11
S'\x02\xf13{\xbd\xe0\xbc@'
p1349
tp1350
Rp1351
ag7
(g11
S'\xc3\x84l\xe1I\xe1\xbc@'
p1352
tp1353
Rp1354
ag7
(g11
S'y+\x17|\xaf\xe1\xbc@'
p1355
tp1356
Rp1357
ag7
(g11
S'\x05p=\xc4\xfd\xe2\xbc@'
p1358
tp1359
Rp1360
ag7
(g11
S'\xe3\xe3oz\x0e\xea\xbc@'
p1361
tp1362
Rp1363
ag7
(g11
S'\xf9Q\xebyY\xec\xbc@'
p1364
tp1365
Rp1366
ag7
(g11
S'$ _\xa6w\xed\xbc@'
p1367
tp1368
Rp1369
ag7
(g11
S'\xcc,,\xab\xcd\xed\xbc@'
p1370
tp1371
Rp1372
ag7
(g11
S'\xda\x88\x84\xb8^\xf0\xbc@'
p1373
tp1374
Rp1375
ag7
(g11
S'\xe0>\x89\x03\x89\xf3\xbc@'
p1376
tp1377
Rp1378
ag7
(g11
S'BsqP\x0c\xf4\xbc@'
p1379
tp1380
Rp1381
ag7
(g11
S'}\xc5\xcaU\xa9\xf9\xbc@'
p1382
tp1383
Rp1384
ag7
(g11
S'6\x8a\x89\xb4a\xfa\xbc@'
p1385
tp1386
Rp1387
ag7
(g11
S'\xfe\xda,\xe2\x17\xfd\xbc@'
p1388
tp1389
Rp1390
ag7
(g11
S'I\x87U\x18)\xfe\xbc@'
p1391
tp1392
Rp1393
ag7
(g11
S'\xc9\xb6y\xc7%\x01\xbd@'
p1394
tp1395
Rp1396
ag7
(g11
S'\x7f\xce\xc5\x17\xb4\x04\xbd@'
p1397
tp1398
Rp1399
ag7
(g11
S'\xce\xec\xc1\xe4\x06\x06\xbd@'
p1400
tp1401
Rp1402
ag7
(g11
S'h\xab\xeei\xd4\x19\xbb@'
p1403
tp1404
Rp1405
ag7
(g11
S'!\x9b\xd4\xb2Q\x1f\xbb@'
p1406
tp1407
Rp1408
ag7
(g11
S'\x9a\xa2-\x14\x1f!\xbb@'
p1409
tp1410
Rp1411
ag7
(g11
S"Q\xbe\x97)6'\xbb@"
p1412
tp1413
Rp1414
ag7
(g11
S'\xbd\xf3\xbe;\xdc)\xbb@'
p1415
tp1416
Rp1417
ag7
(g11
S'\x17\xb0g*\x1a0\xbb@'
p1418
tp1419
Rp1420
ag7
(g11
S'<A5\xdaV<\xbb@'
p1421
tp1422
Rp1423
ag7
(g11
S'\xed5\x0e\xac\xe8D\xbb@'
p1424
tp1425
Rp1426
ag7
(g11
S'o,p\x0f\xbeK\xbb@'
p1427
tp1428
Rp1429
ag7
(g11
S'\xd2\xb9\xc8H\xbaM\xbb@'
p1430
tp1431
Rp1432
ag7
(g11
S'hj\xd2L\x15P\xbb@'
p1433
tp1434
Rp1435
ag7
(g11
S'\xb6\rU\x86\x9eX\xbb@'
p1436
tp1437
Rp1438
ag7
(g11
S'\xee\xf0\xfe\xbb\x97\\\xbb@'
p1439
tp1440
Rp1441
ag7
(g11
S'\xa9\xdf\xc0\xaf\xe5c\xbb@'
p1442
tp1443
Rp1444
ag7
(g11
S'\xb8\xc2HL$g\xbb@'
p1445
tp1446
Rp1447
ag7
(g11
S'2\xdf\xed\x1byj\xbb@'
p1448
tp1449
Rp1450
ag7
(g11
S'\xa5\xcc\xb6%\xf1p\xbb@'
p1451
tp1452
Rp1453
ag7
(g11
S'\x81z\xb6\xd8hv\xbb@'
p1454
tp1455
Rp1456
ag7
(g11
S'f\xcc\x86\xe8\x1d|\xbb@'
p1457
tp1458
Rp1459
ag7
(g11
S'\xc3\xfa\xe8;\x93\x85\xbb@'
p1460
tp1461
Rp1462
ag7
(g11
S'\x7f%\xc3ZZ\x8d\xbb@'
p1463
tp1464
Rp1465
ag7
(g11
S'\xe2\x0c\xc1\xadJ\x8e\xbb@'
p1466
tp1467
Rp1468
ag7
(g11
S'3\x86\x14-Q\x92\xbb@'
p1469
tp1470
Rp1471
ag7
(g11
S'\x9f\xd4\x91[\xd5\x93\xbb@'
p1472
tp1473
Rp1474
ag7
(g11
S']\xa7\xf6\x92\x7f\x94\xbb@'
p1475
tp1476
Rp1477
ag7
(g11
S'\xab7\xca{C\x98\xbb@'
p1478
tp1479
Rp1480
ag7
(g11
S'\x82\x1b@*"\x9d\xbb@'
p1481
tp1482
Rp1483
ag7
(g11
S'Sf\x02\xe0\x17\xa3\xbb@'
p1484
tp1485
Rp1486
ag7
(g11
S'G\x07g\x9a\xf4\xab\xbb@'
p1487
tp1488
Rp1489
ag7
(g11
S'\xb5!\xfc;r\xae\xbb@'
p1490
tp1491
Rp1492
ag7
(g11
S'\xa6\xbe\xd6\x15 \xb1\xbb@'
p1493
tp1494
Rp1495
ag7
(g11
S'\xff\x0fM\xb83\xb2\xbb@'
p1496
tp1497
Rp1498
ag7
(g11
S'\x9f\xcf-?\x8a\xb5\xbb@'
p1499
tp1500
Rp1501
ag7
(g11
S'\x10\xf0\x84?D\xbc\xbb@'
p1502
tp1503
Rp1504
ag7
(g11
S'\x9e\xb4\xa5\xb7l\xc3\xbb@'
p1505
tp1506
Rp1507
ag7
(g11
S'\xad9\xd4\x10\xb4\xc3\xbb@'
p1508
tp1509
Rp1510
ag7
(g11
S'\xd6\x9c\xa7\xe9\xb0\xc5\xbb@'
p1511
tp1512
Rp1513
ag7
(g11
S'\x80\xb7\r\x99*\xca\xbb@'
p1514
tp1515
Rp1516
ag7
(g11
S'\x18\xdb\xe1t~\xd4\xbb@'
p1517
tp1518
Rp1519
ag7
(g11
S'e\xed\xd0(\xd9\xd5\xbb@'
p1520
tp1521
Rp1522
ag7
(g11
S'\xe3\xd89\xe5\x96\xd1\xbb@'
p1523
tp1524
Rp1525
ag7
(g11
S'\x9e\x8d\xd0\x92\xfa\xd9\xbb@'
p1526
tp1527
Rp1528
ag7
(g11
S'\xb9\xc7\x1b\xd8a\xda\xbb@'
p1529
tp1530
Rp1531
ag7
(g11
S'\xfc\xda\x98\xdb/\xdb\xbb@'
p1532
tp1533
Rp1534
ag7
(g11
S'\xe2 \xb1\x1bs\xdc\xbb@'
p1535
tp1536
Rp1537
ag7
(g11
S'TY\xf5>/\xee\xbb@'
p1538
tp1539
Rp1540
ag7
(g11
S'&\x84}\x97w\xec\xbb@'
p1541
tp1542
Rp1543
ag7
(g11
S'2\xa2\x0fq_\xeb\xbb@'
p1544
tp1545
Rp1546
ag7
(g11
S'\xa4\xe0*T\xc8\xf4\xbb@'
p1547
tp1548
Rp1549
ag7
(g11
S's\x151\t\xc9\xf6\xbb@'
p1550
tp1551
Rp1552
ag7
(g11
S'cr2\x90S\xfa\xbb@'
p1553
tp1554
Rp1555
ag7
(g11
S'`\xc2k\xf1\x14\x01\xbc@'
p1556
tp1557
Rp1558
ag7
(g11
S'*^e\xf7/\x05\xbc@'
p1559
tp1560
Rp1561
ag7
(g11
S'sX\x17L\xda\r\xbc@'
p1562
tp1563
Rp1564
ag7
(g11
S'\x03\xed[\xdaz\x15\xbc@'
p1565
tp1566
Rp1567
ag7
(g11
S'/s\x0e\xb1\xd7\x16\xbc@'
p1568
tp1569
Rp1570
ag7
(g11
S'\xba\x04 \xf2\xa8\x1f\xbc@'
p1571
tp1572
Rp1573
ag7
(g11
S'\n^\xd0\x0c?"\xbc@'
p1574
tp1575
Rp1576
ag7
(g11
S'\xb0+\xdcI\xa9"\xbc@'
p1577
tp1578
Rp1579
ag7
(g11
S'\x95j\x03~\xf9>\xba@'
p1580
tp1581
Rp1582
ag7
(g11
S'\x0fl\x94q\xa9B\xba@'
p1583
tp1584
Rp1585
ag7
(g11
S'\xfa\xed1\x02?G\xba@'
p1586
tp1587
Rp1588
ag7
(g11
S'\xe0\xbd\x8f\x19\xf2G\xba@'
p1589
tp1590
Rp1591
ag7
(g11
S'\xaf\xceG EJ\xba@'
p1592
tp1593
Rp1594
ag7
(g11
S'\x8f\xaa|\x91\x8bM\xba@'
p1595
tp1596
Rp1597
ag7
(g11
S'`\xc8\xfa+\x0bW\xba@'
p1598
tp1599
Rp1600
ag7
(g11
S'\x8d\x98\x1a\x14>a\xba@'
p1601
tp1602
Rp1603
ag7
(g11
S'\x07\x97\xe1\x8f b\xba@'
p1604
tp1605
Rp1606
ag7
(g11
S'\xe8\xbe\xbc\xfdyd\xba@'
p1607
tp1608
Rp1609
ag7
(g11
S' #\xc5\xbfGn\xba@'
p1610
tp1611
Rp1612
ag7
(g11
S'O\xa3\x10L\x89m\xba@'
p1613
tp1614
Rp1615
ag7
(g11
S'0c\x08\xd0\xe2q\xba@'
p1616
tp1617
Rp1618
ag7
(g11
S'\xc1\x9a\x00p\xecs\xba@'
p1619
tp1620
Rp1621
ag7
(g11
S'WR\n\x03\xe8t\xba@'
p1622
tp1623
Rp1624
ag7
(g11
S'\xd7\x8d\x94\x80\x10z\xba@'
p1625
tp1626
Rp1627
ag7
(g11
S'\x10\x10\xdc9\x0f|\xba@'
p1628
tp1629
Rp1630
ag7
(g11
S'\xd4\xe3\x12\x06\xfd\x82\xba@'
p1631
tp1632
Rp1633
ag7
(g11
S'\x8e\\ox\xaa\x84\xba@'
p1634
tp1635
Rp1636
ag7
(g11
S'>\xbds$\xfd\x86\xba@'
p1637
tp1638
Rp1639
ag7
(g11
S'\xb4\x00\x90Vu\x88\xba@'
p1640
tp1641
Rp1642
ag7
(g11
S'\x12\xc5cKY\x8e\xba@'
p1643
tp1644
Rp1645
ag7
(g11
S'=\xe7a\x18\xc4\x8f\xba@'
p1646
tp1647
Rp1648
ag7
(g11
S'^\xd4\xf9\xe4&\x98\xba@'
p1649
tp1650
Rp1651
ag7
(g11
S';"\xfc\xa9i\x9a\xba@'
p1652
tp1653
Rp1654
ag7
(g11
S'\xae\x1e\x04a\xf6\xa1\xba@'
p1655
tp1656
Rp1657
ag7
(g11
S'3<\xa0\x12C\xa7\xba@'
p1658
tp1659
Rp1660
ag7
(g11
S'Y\x9d\x1f\xfbv\xa8\xba@'
p1661
tp1662
Rp1663
ag7
(g11
S'\xdd\xbf\xeeO\x06\xab\xba@'
p1664
tp1665
Rp1666
ag7
(g11
S'6v\xc7\xc3\xf3\xac\xba@'
p1667
tp1668
Rp1669
ag7
(g11
S'\x0fX\x12r\xd4\xb2\xba@'
p1670
tp1671
Rp1672
ag7
(g11
S'\xc7~\xf3\x12M\xbe\xba@'
p1673
tp1674
Rp1675
ag7
(g11
S'\xa4+S\xae\xb1\xc3\xba@'
p1676
tp1677
Rp1678
ag7
(g11
S'<\xd3\xb1\xa2\x16\xcd\xba@'
p1679
tp1680
Rp1681
ag7
(g11
S'\x85\x1b\xd7\x9aD\xcf\xba@'
p1682
tp1683
Rp1684
ag7
(g11
S'[\xb8\x17"F\xd2\xba@'
p1685
tp1686
Rp1687
ag7
(g11
S'}\xc7C\x10\x83\xd2\xba@'
p1688
tp1689
Rp1690
ag7
(g11
S'*\x15\x8b\xea9\xd4\xba@'
p1691
tp1692
Rp1693
ag7
(g11
S'\xd3H\x94\xd0\x89\xd7\xba@'
p1694
tp1695
Rp1696
ag7
(g11
S'\x0bI\xe5\xcf\x93\xda\xba@'
p1697
tp1698
Rp1699
ag7
(g11
S'\xb9\xcf\x1b\x12q\xdf\xba@'
p1700
tp1701
Rp1702
ag7
(g11
S'\xf4\x94\xa3+\xed\xe4\xba@'
p1703
tp1704
Rp1705
ag7
(g11
S'\t\x9f\xdd#\xd0\xe6\xba@'
p1706
tp1707
Rp1708
ag7
(g11
S'\x83\x83\x82y\xf7\xe7\xba@'
p1709
tp1710
Rp1711
ag7
(g11
S'd\x84\xc4\x08/\xe9\xba@'
p1712
tp1713
Rp1714
ag7
(g11
S'\x0f\xc9/\x8bW\xec\xba@'
p1715
tp1716
Rp1717
ag7
(g11
S'\xac\x90\x18ws\xff\xba@'
p1718
tp1719
Rp1720
ag7
(g11
S'\xe04?\xcf\xf9\x03\xbb@'
p1721
tp1722
Rp1723
ag7
(g11
S'\t;f\x05\xe5\x0c\xbb@'
p1724
tp1725
Rp1726
ag7
(g11
S'\xbf\x1c,k\x9d\x19\xbb@'
p1727
tp1728
Rp1729
ag7
(g11
S'\x1a\xca\xf7r`\x1e\xbb@'
p1730
tp1731
Rp1732
ag7
(g11
S'%E\xac\x83\x96\x1f\xbb@'
p1733
tp1734
Rp1735
ag7
(g11
S'\x01\xb6\xae[\xe9 \xbb@'
p1736
tp1737
Rp1738
ag7
(g11
S"\xfak\xf4z5'\xbb@"
p1739
tp1740
Rp1741
ag7
(g11
S'^/\xbf\xa9\x1c0\xbb@'
p1742
tp1743
Rp1744
ag7
(g11
S'\xe9#D\xdc\x86;\xbb@'
p1745
tp1746
Rp1747
ag7
(g11
S'z\xba\x84W\xd4y\xb9@'
p1748
tp1749
Rp1750
ag7
(g11
S'\xd2W\x02\x12\x1d\x83\xb9@'
p1751
tp1752
Rp1753
ag7
(g11
S'\x82\x1c\xbe7\xda\x89\xb9@'
p1754
tp1755
Rp1756
ag7
(g11
S'\x13\xad\xc6p\xf1\x90\xb9@'
p1757
tp1758
Rp1759
ag7
(g11
S't\xd38\xeb\x11\x9a\xb9@'
p1760
tp1761
Rp1762
ag7
(g11
S'\xfa\xd7J\xcb\xac\x9e\xb9@'
p1763
tp1764
Rp1765
ag7
(g11
S'\x15pF\xceF\xa4\xb9@'
p1766
tp1767
Rp1768
ag7
(g11
S'U\xc1\xf9\xb2V\xa9\xb9@'
p1769
tp1770
Rp1771
ag7
(g11
S'H\x06\x8aZ\xf7\xaf\xb9@'
p1772
tp1773
Rp1774
ag7
(g11
S':lC`&\xb1\xb9@'
p1775
tp1776
Rp1777
ag7
(g11
S'a\x1eJ\x05)\xb8\xb9@'
p1778
tp1779
Rp1780
ag7
(g11
S'=\xd3\xd6\xe8\xcf\xbc\xb9@'
p1781
tp1782
Rp1783
ag7
(g11
S'\x81\xe9+3\xaf\xbf\xb9@'
p1784
tp1785
Rp1786
ag7
(g11
S'N\xe5?\xde\xdb\xc1\xb9@'
p1787
tp1788
Rp1789
ag7
(g11
S'0\xeb\x96j\x91\xc6\xb9@'
p1790
tp1791
Rp1792
ag7
(g11
S'\xce\x18\x80P\xd3\xcc\xb9@'
p1793
tp1794
Rp1795
ag7
(g11
S'j\xf9x\xa7@\xcd\xb9@'
p1796
tp1797
Rp1798
ag7
(g11
S'>\xd6\xe1\xb7H\xd5\xb9@'
p1799
tp1800
Rp1801
ag7
(g11
S'!j5\xb7\xed\xd8\xb9@'
p1802
tp1803
Rp1804
ag7
(g11
S'\xf6\xf9\x00\x8cj\xd9\xb9@'
p1805
tp1806
Rp1807
ag7
(g11
S'\xa3\x15fM\x06\xda\xb9@'
p1808
tp1809
Rp1810
ag7
(g11
S'\xf49\xcf\x0c\x80\xdb\xb9@'
p1811
tp1812
Rp1813
ag7
(g11
S'\xc2\xaef*\xf9\xe5\xb9@'
p1814
tp1815
Rp1816
ag7
(g11
S'\xa5fW\x12\xf4\xe7\xb9@'
p1817
tp1818
Rp1819
ag7
(g11
S'\xf1qe\xc9\x13\xee\xb9@'
p1820
tp1821
Rp1822
ag7
(g11
S'\xfcR{\n\xce\xee\xb9@'
p1823
tp1824
Rp1825
ag7
(g11
S'\xe9\x1b\xa45\x89\xef\xb9@'
p1826
tp1827
Rp1828
ag7
(g11
S'AG\x95\xbb\xa9\xf3\xb9@'
p1829
tp1830
Rp1831
ag7
(g11
S'\xf6\xfbLXn\xf4\xb9@'
p1832
tp1833
Rp1834
ag7
(g11
S'\xe5$/X\xa6\x00\xba@'
p1835
tp1836
Rp1837
ag7
(g11
S'\xbfV\xf8\xc8\x83\x02\xba@'
p1838
tp1839
Rp1840
ag7
(g11
S'fM|\xae\x84\x04\xba@'
p1841
tp1842
Rp1843
ag7
(g11
S'\x14\xf8\xbd\xbf2\x06\xba@'
p1844
tp1845
Rp1846
ag7
(g11
S'\x07\xc3\x15\xd4\xec\x07\xba@'
p1847
tp1848
Rp1849
ag7
(g11
S'\xc9\xd7;\xd6G\n\xba@'
p1850
tp1851
Rp1852
ag7
(g11
S'6$\x81\xb6\x8c\x12\xba@'
p1853
tp1854
Rp1855
ag7
(g11
S'\x16\x1d\x02g!\x15\xba@'
p1856
tp1857
Rp1858
ag7
(g11
S'[O?Y\x8b\x16\xba@'
p1859
tp1860
Rp1861
ag7
(g11
S'\r0\xcf4G\x1b\xba@'
p1862
tp1863
Rp1864
ag7
(g11
S'\x1c\xbd<;@\x1c\xba@'
p1865
tp1866
Rp1867
ag7
(g11
S'\x06\xd5\x14\x16\xde!\xba@'
p1868
tp1869
Rp1870
ag7
(g11
S't\x0c0\xa4{$\xba@'
p1871
tp1872
Rp1873
ag7
(g11
S'\xad\xab\xbfw\xec%\xba@'
p1874
tp1875
Rp1876
ag7
(g11
S'j\xd8\x7f\xd4]&\xba@'
p1877
tp1878
Rp1879
ag7
(g11
S'\xf9\x81.1\x95)\xba@'
p1880
tp1881
Rp1882
ag7
(g11
S'\xe3f\xed\xf2=*\xba@'
p1883
tp1884
Rp1885
ag7
(g11
S'\xc1\x8dq}\xcb*\xba@'
p1886
tp1887
Rp1888
ag7
(g11
S'\xb6\x98x\xce!7\xba@'
p1889
tp1890
Rp1891
ag7
(g11
S'~W\xd1\x0f\xbd9\xba@'
p1892
tp1893
Rp1894
ag7
(g11
S'q\x84\x87\xd7\x03;\xba@'
p1895
tp1896
Rp1897
ag7
(g11
S'2\x18\xb7\xf5*=\xba@'
p1898
tp1899
Rp1900
ag7
(g11
S'oP\x13\x93\x0b?\xba@'
p1901
tp1902
Rp1903
ag7
(g11
S'\x04\x03cD\xaeB\xba@'
p1904
tp1905
Rp1906
ag7
(g11
S'L\x00\xd2F_G\xba@'
p1907
tp1908
Rp1909
ag7
(g11
S'\x93\xb0*\r\xfdG\xba@'
p1910
tp1911
Rp1912
ag7
(g11
S'\xee\xfc\x8b\xc3\\J\xba@'
p1913
tp1914
Rp1915
ag7
(g11
S'b\n\xe8\xb8\x9fM\xba@'
p1916
tp1917
Rp1918
ag7
(g11
S'p{5TlP\xba@'
p1919
tp1920
Rp1921
ag7
(g11
S"\\+'\xe3\x03R\xba@"
p1922
tp1923
Rp1924
ag7
(g11
S'\x87\xf0\xe8\xa3\xcaV\xba@'
p1925
tp1926
Rp1927
ag7
(g11
S'\x1c,\xddH"a\xba@'
p1928
tp1929
Rp1930
ag7
(g11
S'\xb2!\x91\x0e\x00d\xba@'
p1931
tp1932
Rp1933
ag7
(g11
S'!\xdci |d\xba@'
p1934
tp1935
Rp1936
ag7
(g11
S'\x19OH]\x8bn\xba@'
p1937
tp1938
Rp1939
ag7
(g11
S'\x7f/Y\xbc&z\xba@'
p1940
tp1941
Rp1942
ag7
(g11
S'=\x04\xcf\xbb\xaaz\xba@'
p1943
tp1944
Rp1945
ag7
(g11
S'\xb6-\x12\x18k\xc1\xb8@'
p1946
tp1947
Rp1948
ag7
(g11
S'G\x0e\xa4\xf3|\xc3\xb8@'
p1949
tp1950
Rp1951
ag7
(g11
S'3\x95\x18\x0b\xa9\xc6\xb8@'
p1952
tp1953
Rp1954
ag7
(g11
S'\xa9\xac\xb3\xf9\xf1\xcb\xb8@'
p1955
tp1956
Rp1957
ag7
(g11
S'\xb6\xc3\x08\x9d}\xcc\xb8@'
p1958
tp1959
Rp1960
ag7
(g11
S'\xce\xcb\x1e\xb9\xc5\xd3\xb8@'
p1961
tp1962
Rp1963
ag7
(g11
S'\xe9\xf8\xaej\xa6\xd4\xb8@'
p1964
tp1965
Rp1966
ag7
(g11
S'\x98\x01\x9e\xcax\xd5\xb8@'
p1967
tp1968
Rp1969
ag7
(g11
S'\xaa(x\xbbk\xd6\xb8@'
p1970
tp1971
Rp1972
ag7
(g11
S'\xe1\x82\xb0!\x91\xd7\xb8@'
p1973
tp1974
Rp1975
ag7
(g11
S';\x1e\x07$\x9c\xdc\xb8@'
p1976
tp1977
Rp1978
ag7
(g11
S'\xbaU\x9e\xe0\xde\xe0\xb8@'
p1979
tp1980
Rp1981
ag7
(g11
S'\xb1!\xc0Dh\xe1\xb8@'
p1982
tp1983
Rp1984
ag7
(g11
S'\xb3\x90\xea\x8d\xdd\xe3\xb8@'
p1985
tp1986
Rp1987
ag7
(g11
S'\xebJ\x0f\xbc\xab\xe8\xb8@'
p1988
tp1989
Rp1990
ag7
(g11
S'\x0eI\xba\x06\xc3\xf0\xb8@'
p1991
tp1992
Rp1993
ag7
(g11
S'\xf9,:\xd4-\xf3\xb8@'
p1994
tp1995
Rp1996
ag7
(g11
S'\xcc\xbb\xfff\xf8\xf5\xb8@'
p1997
tp1998
Rp1999
ag7
(g11
S'\x89\xa7\xeb\x16\x9c\xf9\xb8@'
p2000
tp2001
Rp2002
ag7
(g11
S'>\x009\xf4\x85\xfa\xb8@'
p2003
tp2004
Rp2005
ag7
(g11
S'T\x9c\x19r`\xfc\xb8@'
p2006
tp2007
Rp2008
ag7
(g11
S'\xe0(g\xcc\x00\xff\xb8@'
p2009
tp2010
Rp2011
ag7
(g11
S'C]\xa5\xf1\x92\x00\xb9@'
p2012
tp2013
Rp2014
ag7
(g11
S'g\xd7\x11\xe6\xd5\x02\xb9@'
p2015
tp2016
Rp2017
ag7
(g11
S'\xeb\xcc\xf5\xabY\x06\xb9@'
p2018
tp2019
Rp2020
ag7
(g11
S'\xeb\t\x11~\xf4\x0b\xb9@'
p2021
tp2022
Rp2023
ag7
(g11
S'\xce\x8e_\xbel\r\xb9@'
p2024
tp2025
Rp2026
ag7
(g11
S'\x0b\xc0]{\x87\x10\xb9@'
p2027
tp2028
Rp2029
ag7
(g11
S':o\x08]\x13\x12\xb9@'
p2030
tp2031
Rp2032
ag7
(g11
S'\xdf\x81<Z\xa8\x16\xb9@'
p2033
tp2034
Rp2035
ag7
(g11
S'\xb1`\xf5ea\x1f\xb9@'
p2036
tp2037
Rp2038
ag7
(g11
S'\xd0\xe3\xc0\x92\xdc"\xb9@'
p2039
tp2040
Rp2041
ag7
(g11
S'\xc5\xa9\xd3#\xd7&\xb9@'
p2042
tp2043
Rp2044
ag7
(g11
S'QL\x7f\xfa\xa7)\xb9@'
p2045
tp2046
Rp2047
ag7
(g11
S'\xb0\xdd\x019e+\xb9@'
p2048
tp2049
Rp2050
ag7
(g11
S'\xbb\xfa\xec\x02e.\xb9@'
p2051
tp2052
Rp2053
ag7
(g11
S'\xd2e\xb2\x14\xdc1\xb9@'
p2054
tp2055
Rp2056
ag7
(g11
S'y5\xfc\\K9\xb9@'
p2057
tp2058
Rp2059
ag7
(g11
S'o\x8c\x93\xc0k>\xb9@'
p2060
tp2061
Rp2062
ag7
(g11
S'\x80n\xb8y\x81B\xb9@'
p2063
tp2064
Rp2065
ag7
(g11
S'\xa4u\xbe\xdc\xdcC\xb9@'
p2066
tp2067
Rp2068
ag7
(g11
S'v\xd9l$\xd4F\xb9@'
p2069
tp2070
Rp2071
ag7
(g11
S'\x12i\x1a\xf4 H\xb9@'
p2072
tp2073
Rp2074
ag7
(g11
S'1\xb5\x7fK\xa2J\xb9@'
p2075
tp2076
Rp2077
ag7
(g11
S'\xcd\xf7\x80-\nQ\xb9@'
p2078
tp2079
Rp2080
ag7
(g11
S'\\aT\x84\x0fS\xb9@'
p2081
tp2082
Rp2083
ag7
(g11
S'\xd1\xce@]SW\xb9@'
p2084
tp2085
Rp2086
ag7
(g11
S'\xd9\x1d\x84\xa4uZ\xb9@'
p2087
tp2088
Rp2089
ag7
(g11
S'h{\xc6\x8a\x07]\xb9@'
p2090
tp2091
Rp2092
ag7
(g11
S'\xe5\xe1\xe3\x9e\xd8]\xb9@'
p2093
tp2094
Rp2095
ag7
(g11
S'|\xfb!\x96]a\xb9@'
p2096
tp2097
Rp2098
ag7
(g11
S'\xab{\xb3\r\xe5b\xb9@'
p2099
tp2100
Rp2101
ag7
(g11
S'\x01\n\xfa*Ce\xb9@'
p2102
tp2103
Rp2104
ag7
(g11
S'\xf2\xe1\x91\x15\xdce\xb9@'
p2105
tp2106
Rp2107
ag7
(g11
S'\x85u\xd8\xc3jg\xb9@'
p2108
tp2109
Rp2110
ag7
(g11
S'\xcf~\xad`\xe9j\xb9@'
p2111
tp2112
Rp2113
ag7
(g11
S'S\x9c\\n\xf4l\xb9@'
p2114
tp2115
Rp2116
ag7
(g11
S'\xa0 \x97B6p\xb9@'
p2117
tp2118
Rp2119
ag7
(g11
S'\x9d\xe9\x94m\xadq\xb9@'
p2120
tp2121
Rp2122
ag7
(g11
S'\x12\xc2\x93\xc4\xe8y\xb9@'
p2123
tp2124
Rp2125
ag7
(g11
S'*@K\xd1h\x83\xb9@'
p2126
tp2127
Rp2128
ag7
(g11
S'4&\x0c7\xe5\x89\xb9@'
p2129
tp2130
Rp2131
ag7
(g11
S'\xa6\x93\x08\x0f\xee\x8f\xb9@'
p2132
tp2133
Rp2134
ag7
(g11
S'\xc8\x86\xe26\x9a\x97\xb9@'
p2135
tp2136
Rp2137
ag7
(g11
S'\x17<@\xfe\x14\x9a\xb9@'
p2138
tp2139
Rp2140
ag7
(g11
S'ba\xfe\x8c\xca\x9e\xb9@'
p2141
tp2142
Rp2143
ag7
(g11
S'\x84\x9e\x1a/D\xa4\xb9@'
p2144
tp2145
Rp2146
ag7
(g11
S"\xbf\x02\xcd'O\xa9\xb9@"
p2147
tp2148
Rp2149
ag7
(g11
S'\xa9\x9f\xf0\xe9\x16\xb1\xb9@'
p2150
tp2151
Rp2152
ag7
(g11
S'\x085\x07\x1cE\x14\xb8@'
p2153
tp2154
Rp2155
ag7
(g11
S'\xebjr\xc0\xcb\x19\xb8@'
p2156
tp2157
Rp2158
ag7
(g11
S'\xaaajI \x1a\xb8@'
p2159
tp2160
Rp2161
ag7
(g11
S'\xd7\xd9N\xe6\xae\x1c\xb8@'
p2162
tp2163
Rp2164
ag7
(g11
S'{/\xf4\xe7\x00\x1d\xb8@'
p2165
tp2166
Rp2167
ag7
(g11
S'[\xdd\x14r,"\xb8@'
p2168
tp2169
Rp2170
ag7
(g11
S'\xe3F\x98\x0b\x85$\xb8@'
p2171
tp2172
Rp2173
ag7
(g11
S'\x81/\xa9:\x9a&\xb8@'
p2174
tp2175
Rp2176
ag7
(g11
S'Y\x14\x97\xbe\xe6+\xb8@'
p2177
tp2178
Rp2179
ag7
(g11
S'\xf4\x86\xd6\x96\xc9/\xb8@'
p2180
tp2181
Rp2182
ag7
(g11
S'\x0f\xf8\xcd\x1e@6\xb8@'
p2183
tp2184
Rp2185
ag7
(g11
S'o\xdd\xfbK\xd88\xb8@'
p2186
tp2187
Rp2188
ag7
(g11
S'\x8f\xef\x9f\xb3\xa2;\xb8@'
p2189
tp2190
Rp2191
ag7
(g11
S'\x15|$aI?\xb8@'
p2192
tp2193
Rp2194
ag7
(g11
S'v\x01\x7f\xb6\x85D\xb8@'
p2195
tp2196
Rp2197
ag7
(g11
S'*Xo\x1d\xceG\xb8@'
p2198
tp2199
Rp2200
ag7
(g11
S'\xce\xed\x87\xf8\xeeK\xb8@'
p2201
tp2202
Rp2203
ag7
(g11
S'\xcd\x89el)M\xb8@'
p2204
tp2205
Rp2206
ag7
(g11
S'@_\x83]zP\xb8@'
p2207
tp2208
Rp2209
ag7
(g11
S'\xe0~\xaa\xe6\x1fR\xb8@'
p2210
tp2211
Rp2212
ag7
(g11
S'\x88\x86G\x0f\xc8Z\xb8@'
p2213
tp2214
Rp2215
ag7
(g11
S'\x1d\x83\x9f\xeay_\xb8@'
p2216
tp2217
Rp2218
ag7
(g11
S'\xed\xfcY\xa3\xc3`\xb8@'
p2219
tp2220
Rp2221
ag7
(g11
S'\x17\xe2\xc6\xd1\x0fc\xb8@'
p2222
tp2223
Rp2224
ag7
(g11
S'\xe5\xfa\xa1\xcfHh\xb8@'
p2225
tp2226
Rp2227
ag7
(g11
S'(>\x8c\xc7;q\xb8@'
p2228
tp2229
Rp2230
ag7
(g11
S'\xdf\xf8\x96h\xd8t\xb8@'
p2231
tp2232
Rp2233
ag7
(g11
S'\xde\xa2C\xefqu\xb8@'
p2234
tp2235
Rp2236
ag7
(g11
S'\x9f$U\xb1|y\xb8@'
p2237
tp2238
Rp2239
ag7
(g11
S'\xa4\xfb\xe0\xf3]\x7f\xb8@'
p2240
tp2241
Rp2242
ag7
(g11
S'\xe0\xa7\x1aT\x08\x82\xb8@'
p2243
tp2244
Rp2245
ag7
(g11
S'\xe8R=\x92\xfb\x83\xb8@'
p2246
tp2247
Rp2248
ag7
(g11
S'\x95\xdeAf%\x85\xb8@'
p2249
tp2250
Rp2251
ag7
(g11
S'\x19?\xc5C\x96\x86\xb8@'
p2252
tp2253
Rp2254
ag7
(g11
S'\x84d\x0b3\x16\x87\xb8@'
p2255
tp2256
Rp2257
ag7
(g11
S'\xe8/\xcc\xc1\xdb\x87\xb8@'
p2258
tp2259
Rp2260
ag7
(g11
S'\xc8\xfc\xf7B)\x8d\xb8@'
p2261
tp2262
Rp2263
ag7
(g11
S'\xb9;\x1fs\x16\x8f\xb8@'
p2264
tp2265
Rp2266
ag7
(g11
S'\xa6\xa15J\x0b\x93\xb8@'
p2267
tp2268
Rp2269
ag7
(g11
S'l\x1fZ\x82\x1d\x95\xb8@'
p2270
tp2271
Rp2272
ag7
(g11
S'\x8c\xc2&\xc5\xde\x98\xb8@'
p2273
tp2274
Rp2275
ag7
(g11
S'\xc8\x00\x8f\x0b\xb1\x9c\xb8@'
p2276
tp2277
Rp2278
ag7
(g11
S'\xd0\xea\x8f%*\x9f\xb8@'
p2279
tp2280
Rp2281
ag7
(g11
S'\x02\x86D\xb7\xba\xa3\xb8@'
p2282
tp2283
Rp2284
ag7
(g11
S'q\xd2\xeal\x01\xa5\xb8@'
p2285
tp2286
Rp2287
ag7
(g11
S'\x89;5\xe3\xb3\xa6\xb8@'
p2288
tp2289
Rp2290
ag7
(g11
S'\x8e\x04\x06H\xa4\xab\xb8@'
p2291
tp2292
Rp2293
ag7
(g11
S'x\xf2\xab\x02\x1a\xad\xb8@'
p2294
tp2295
Rp2296
ag7
(g11
S'\x87\xd5M P\xb4\xb8@'
p2297
tp2298
Rp2299
ag7
(g11
S'\x1f\x07qgO\xb6\xb8@'
p2300
tp2301
Rp2302
ag7
(g11
S'\xc7\x92\xf6\xfcG\xb7\xb8@'
p2303
tp2304
Rp2305
ag7
(g11
S'\xfb\xbaI\xd63\xbb\xb8@'
p2306
tp2307
Rp2308
ag7
(g11
S'\xe2\xf8\xdc\n>\xbc\xb8@'
p2309
tp2310
Rp2311
ag7
(g11
S'\x89\xc87\xae\x05\xbd\xb8@'
p2312
tp2313
Rp2314
ag7
(g11
S'\xea\x7f\x8c\xcff\xc1\xb8@'
p2315
tp2316
Rp2317
ag7
(g11
S'r\xaa$z~\xc3\xb8@'
p2318
tp2319
Rp2320
ag7
(g11
S'T\xfe\xf7\x82\xf0\xc6\xb8@'
p2321
tp2322
Rp2323
ag7
(g11
S'\xe7V\x97\xf1\xef\xc9\xb8@'
p2324
tp2325
Rp2326
ag7
(g11
S'W\xa1&\xef\x10\xcc\xb8@'
p2327
tp2328
Rp2329
ag7
(g11
S'D\xf8\x10\xe5\x84\xcc\xb8@'
p2330
tp2331
Rp2332
ag7
(g11
S'O\x0b\xa3\x0e\x03\xcd\xb8@'
p2333
tp2334
Rp2335
ag7
(g11
S'w>\x1f\x19\x89\xd3\xb8@'
p2336
tp2337
Rp2338
ag7
(g11
S'\xf4\x8cm\xe0\xcf\xd3\xb8@'
p2339
tp2340
Rp2341
ag7
(g11
S'V\xcc\xd3+\xe2\xd4\xb8@'
p2342
tp2343
Rp2344
ag7
(g11
S'eg\x18ly\xd5\xb8@'
p2345
tp2346
Rp2347
ag7
(g11
S'\xcf\xb3\xfa\xb7\x82\xd6\xb8@'
p2348
tp2349
Rp2350
ag7
(g11
S'Dmw\xbe\x01\xd7\xb8@'
p2351
tp2352
Rp2353
ag7
(g11
S'\xb8Q\xddo\x9a\xd7\xb8@'
p2354
tp2355
Rp2356
ag7
(g11
S'\xa1\xf4\xb71\xc5\xdc\xb8@'
p2357
tp2358
Rp2359
ag7
(g11
S']\xc7E\x9e\xdc\xe0\xb8@'
p2360
tp2361
Rp2362
ag7
(g11
S'8\xd2_3l\xe1\xb8@'
p2363
tp2364
Rp2365
ag7
(g11
S'\xa2!\x9db\xe0\xe3\xb8@'
p2366
tp2367
Rp2368
ag7
(g11
S'kk\xce\xcd\xe2\xe8\xb8@'
p2369
tp2370
Rp2371
ag7
(g11
S'\\\xf6G\x96\xa4\xf0\xb8@'
p2372
tp2373
Rp2374
ag7
(g11
S'6?\xb7\x1d-\xf3\xb8@'
p2375
tp2376
Rp2377
ag7
(g11
S'0\xd3\xf9\xee\t\xf4\xb8@'
p2378
tp2379
Rp2380
ag7
(g11
S'\x83\xc8\x91\x97B\xf5\xb8@'
p2381
tp2382
Rp2383
ag7
(g11
S'uH\xd5C\xf7\xf5\xb8@'
p2384
tp2385
Rp2386
ag7
(g11
S'\xd8<\xfe\x8c\xf4\xf6\xb8@'
p2387
tp2388
Rp2389
ag7
(g11
S"w'{\x97\xa4\xf9\xb8@"
p2390
tp2391
Rp2392
ag7
(g11
S'\xaa\x19\xe7\x8cz\xfa\xb8@'
p2393
tp2394
Rp2395
ag7
(g11
S'<\xa6\xd6\x04h\xfc\xb8@'
p2396
tp2397
Rp2398
ag7
(g11
S'\x8b\x19\xf9\xf2\xf5\xfe\xb8@'
p2399
tp2400
Rp2401
ag7
(g11
S'\x12\x0b\x81]\x1ej\xb7@'
p2402
tp2403
Rp2404
ag7
(g11
S'\xaa\xb5\xa8\xf8Dl\xb7@'
p2405
tp2406
Rp2407
ag7
(g11
S'\x1d\xd4\xc5\x8a\xe4n\xb7@'
p2408
tp2409
Rp2410
ag7
(g11
S'\x8by"\xf8\x12q\xb7@'
p2411
tp2412
Rp2413
ag7
(g11
S'&$\xcd\x8d\xfbt\xb7@'
p2414
tp2415
Rp2416
ag7
(g11
S'~*\xf1\x8a\x91u\xb7@'
p2417
tp2418
Rp2419
ag7
(g11
S')\xbfJ\xb1\xcev\xb7@'
p2420
tp2421
Rp2422
ag7
(g11
S'\xcf|\xa2c\x00z\xb7@'
p2423
tp2424
Rp2425
ag7
(g11
S'\xd1\xeb\xc9\xbc\x92}\xb7@'
p2426
tp2427
Rp2428
ag7
(g11
S'\xca\xf8\x15m)\x7f\xb7@'
p2429
tp2430
Rp2431
ag7
(g11
S'N)\x08m\x0b\x85\xb7@'
p2432
tp2433
Rp2434
ag7
(g11
S'\xf0k \xfe\xf3\x88\xb7@'
p2435
tp2436
Rp2437
ag7
(g11
S'N\x93L\xdb\x1e\x87\xb7@'
p2438
tp2439
Rp2440
ag7
(g11
S'\r\xec\xc9uZ\x8e\xb7@'
p2441
tp2442
Rp2443
ag7
(g11
S'p\xfb\xa5\xc2\x1c\x90\xb7@'
p2444
tp2445
Rp2446
ag7
(g11
S'<\xd6\xae[\xb0\x95\xb7@'
p2447
tp2448
Rp2449
ag7
(g11
S'\xa3p@\xc7\x89\x96\xb7@'
p2450
tp2451
Rp2452
ag7
(g11
S'\x8ai\xcd\xfe3\x9b\xb7@'
p2453
tp2454
Rp2455
ag7
(g11
S'$g\xeb[\xb5\x9e\xb7@'
p2456
tp2457
Rp2458
ag7
(g11
S'c\x04\x93\xcd\x15\xa1\xb7@'
p2459
tp2460
Rp2461
ag7
(g11
S"\xe2\xa1\xc6'\xb2\xa4\xb7@"
p2462
tp2463
Rp2464
ag7
(g11
S']\xb0\x8cGJ\xa5\xb7@'
p2465
tp2466
Rp2467
ag7
(g11
S'\xa5\xa4\xc3\xa7\xae\xab\xb7@'
p2468
tp2469
Rp2470
ag7
(g11
S'U[\xfdS^\xb0\xb7@'
p2471
tp2472
Rp2473
ag7
(g11
S'\xc9>\xe8\x9dd\xb2\xb7@'
p2474
tp2475
Rp2476
ag7
(g11
S'\xdc\xc1\x00\xdc\xda\xb4\xb7@'
p2477
tp2478
Rp2479
ag7
(g11
S'\xda\xb5\xc3\x0e\xfc\xb8\xb7@'
p2480
tp2481
Rp2482
ag7
(g11
S'\xd2\x1c\xee\x13\xfd\xbc\xb7@'
p2483
tp2484
Rp2485
ag7
(g11
S'Q\x94\x9c\xcb\xaa\xbd\xb7@'
p2486
tp2487
Rp2488
ag7
(g11
S'\xafs|\x92F\xbe\xb7@'
p2489
tp2490
Rp2491
ag7
(g11
S'\x8a\tJ\xdd\x1f\xbf\xb7@'
p2492
tp2493
Rp2494
ag7
(g11
S'\x7f\x85\x92B\x10\xc1\xb7@'
p2495
tp2496
Rp2497
ag7
(g11
S'\x14\x9a\x1f\x04,\xc5\xb7@'
p2498
tp2499
Rp2500
ag7
(g11
S'\xec\x11]H\xcb\xc5\xb7@'
p2501
tp2502
Rp2503
ag7
(g11
S'\xe8q\x14\xe4\x03\xc7\xb7@'
p2504
tp2505
Rp2506
ag7
(g11
S"+\xe3L'\xf5\xc7\xb7@"
p2507
tp2508
Rp2509
ag7
(g11
S'\x9d\x9f\x9b\x89\xb5\xca\xb7@'
p2510
tp2511
Rp2512
ag7
(g11
S'\x85\xce\xd2>\xfa\xd1\xb7@'
p2513
tp2514
Rp2515
ag7
(g11
S'\xe5^K\x8f\xa4\xd2\xb7@'
p2516
tp2517
Rp2518
ag7
(g11
S'1\xca=5\xf2\xd4\xb7@'
p2519
tp2520
Rp2521
ag7
(g11
S'\xe2\x04\x1f\xc0\x84\xd5\xb7@'
p2522
tp2523
Rp2524
ag7
(g11
S'3U\xda\x00\x96\xd6\xb7@'
p2525
tp2526
Rp2527
ag7
(g11
S'n\xa5\xba\xc1l\xd7\xb7@'
p2528
tp2529
Rp2530
ag7
(g11
S',\xd6f7Y\xd8\xb7@'
p2531
tp2532
Rp2533
ag7
(g11
S'{~\xaa\xae\xac\xd9\xb7@'
p2534
tp2535
Rp2536
ag7
(g11
S',\xde\xc1\xd4h\xdb\xb7@'
p2537
tp2538
Rp2539
ag7
(g11
S'Re\x83\x86\xc0\xe0\xb7@'
p2540
tp2541
Rp2542
ag7
(g11
S'\\\x88\xc7\x95M\xe3\xb7@'
p2543
tp2544
Rp2545
ag7
(g11
S'5\xf4\x9b\xad\x93\xe7\xb7@'
p2546
tp2547
Rp2548
ag7
(g11
S'\xee\xc8~\xcak\xe8\xb7@'
p2549
tp2550
Rp2551
ag7
(g11
S'\x85\xfb\xc8\xc3X\xe9\xb7@'
p2552
tp2553
Rp2554
ag7
(g11
S'\x8e\x80\xc6\x1cQ\xeb\xb7@'
p2555
tp2556
Rp2557
ag7
(g11
S'H\xfb9\x1fr\xec\xb7@'
p2558
tp2559
Rp2560
ag7
(g11
S'\x01\xcb0\x82V\xef\xb7@'
p2561
tp2562
Rp2563
ag7
(g11
S' \xc1#\x8ee\xf0\xb7@'
p2564
tp2565
Rp2566
ag7
(g11
S'\xeb\xe9\xd0\xbdq\xf3\xb7@'
p2567
tp2568
Rp2569
ag7
(g11
S'JG\xa0\x01H\xf4\xb7@'
p2570
tp2571
Rp2572
ag7
(g11
S'{\xc7;i\xaf\xf6\xb7@'
p2573
tp2574
Rp2575
ag7
(g11
S'\xeaT|\x8c\xac\xf7\xb7@'
p2576
tp2577
Rp2578
ag7
(g11
S'k\x1bw_\x17\xf8\xb7@'
p2579
tp2580
Rp2581
ag7
(g11
S'\xe4G\xa1}\x9c\xf8\xb7@'
p2582
tp2583
Rp2584
ag7
(g11
S'\xdb\xbf\xd3\x1d\x14\xf9\xb7@'
p2585
tp2586
Rp2587
ag7
(g11
S'\x8d\n\xc2\xdap\xfa\xb7@'
p2588
tp2589
Rp2590
ag7
(g11
S'\xde\x15\x80\xed\x0c\xfb\xb7@'
p2591
tp2592
Rp2593
ag7
(g11
S'6\xf3D_\x84\xfb\xb7@'
p2594
tp2595
Rp2596
ag7
(g11
S"!8'\xff\x15\xfc\xb7@"
p2597
tp2598
Rp2599
ag7
(g11
S'\x17\xd6\xcc\xfd\x7f\xfc\xb7@'
p2600
tp2601
Rp2602
ag7
(g11
S'\xff\x04\x1e\x97\x11\xfd\xb7@'
p2603
tp2604
Rp2605
ag7
(g11
S'\x01W\x9a\xf6\x88\xfd\xb7@'
p2606
tp2607
Rp2608
ag7
(g11
S'\x0e\xfc\xd4\x95\xe6\xfd\xb7@'
p2609
tp2610
Rp2611
ag7
(g11
S'@\xd8\xa5R{\x01\xb8@'
p2612
tp2613
Rp2614
ag7
(g11
S'\xba4\xfe2\x93\x06\xb8@'
p2615
tp2616
Rp2617
ag7
(g11
S'eQ\\]\x0f\x08\xb8@'
p2618
tp2619
Rp2620
ag7
(g11
S'.\xc2%\xc4\xe9\t\xb8@'
p2621
tp2622
Rp2623
ag7
(g11
S'\xc6\xe0|LL\n\xb8@'
p2624
tp2625
Rp2626
ag7
(g11
S'*\x9a\xd5;*\x0b\xb8@'
p2627
tp2628
Rp2629
ag7
(g11
S'\xd0T\x82\x01s\x0b\xb8@'
p2630
tp2631
Rp2632
ag7
(g11
S'/\xb5E.\xe5\x0c\xb8@'
p2633
tp2634
Rp2635
ag7
(g11
S'\xc1\ta\xcd9\x11\xb8@'
p2636
tp2637
Rp2638
ag7
(g11
S')Oq\xb0\xa6\x14\xb8@'
p2639
tp2640
Rp2641
ag7
(g11
S'Y\xd9|O\xf9\x14\xb8@'
p2642
tp2643
Rp2644
ag7
(g11
S'\xb7\x17\x1bY\xcc\x19\xb8@'
p2645
tp2646
Rp2647
ag7
(g11
S'\x0b\xfeH\x933\x1a\xb8@'
p2648
tp2649
Rp2650
ag7
(g11
S'\x97~\x8bAD\x1c\xb8@'
p2651
tp2652
Rp2653
ag7
(g11
S'mJ4d*\x1d\xb8@'
p2654
tp2655
Rp2656
ag7
(g11
S'\xaf\xf8it`"\xb8@'
p2657
tp2658
Rp2659
ag7
(g11
S'\xc5\x1d \t\x8f$\xb8@'
p2660
tp2661
Rp2662
ag7
(g11
S'\x85:{\xa6\x9b&\xb8@'
p2663
tp2664
Rp2665
ag7
(g11
S'\x1e/\xb0\xac\x9a(\xb8@'
p2666
tp2667
Rp2668
ag7
(g11
S'E\x04\xc4\x13\x04+\xb8@'
p2669
tp2670
Rp2671
ag7
(g11
S'\x18rUQ\xd1/\xb8@'
p2672
tp2673
Rp2674
ag7
(g11
S'\x84;\xb1\x8f{;\xb8@'
p2675
tp2676
Rp2677
ag7
(g11
S'\x14\xd1\xf1\x98\xb2=\xb8@'
p2678
tp2679
Rp2680
ag7
(g11
S'u\xdf\xf8\x14D?\xb8@'
p2681
tp2682
Rp2683
ag7
(g11
S'\x94\x91A\x1f\x80@\xb8@'
p2684
tp2685
Rp2686
ag7
(g11
S'0\x92\xe5>\x7fD\xb8@'
p2687
tp2688
Rp2689
ag7
(g11
S'\x14\xf4\x98\x07\xcaG\xb8@'
p2690
tp2691
Rp2692
ag7
(g11
S'P\x0c\xb0~\xe8K\xb8@'
p2693
tp2694
Rp2695
ag7
(g11
S'\xf9\xf6\xc5\xb5+M\xb8@'
p2696
tp2697
Rp2698
ag7
(g11
S"\xc2L['`P\xb8@"
p2699
tp2700
Rp2701
ag7
(g11
S'\xf1\x07\xd0H+\xca\xb6@'
p2702
tp2703
Rp2704
ag7
(g11
S'\x81\xe0`pv\xd0\xb6@'
p2705
tp2706
Rp2707
ag7
(g11
S'V\xcc\x02\xbf\x9e\xd3\xb6@'
p2708
tp2709
Rp2710
ag7
(g11
S'\x96N\xfa\x95m\xd8\xb6@'
p2711
tp2712
Rp2713
ag7
(g11
S'\xedr\x89\xec\\\xdd\xb6@'
p2714
tp2715
Rp2716
ag7
(g11
S'\xbe\xf6e7\x01\xde\xb6@'
p2717
tp2718
Rp2719
ag7
(g11
S'\xe3Z_Mz\xe4\xb6@'
p2720
tp2721
Rp2722
ag7
(g11
S'\x9fA"t\xa6\xe7\xb6@'
p2723
tp2724
Rp2725
ag7
(g11
S'a\xbbi:\xc2\xed\xb6@'
p2726
tp2727
Rp2728
ag7
(g11
S'_\xb8\xd7 \x17\xef\xb6@'
p2729
tp2730
Rp2731
ag7
(g11
S'\xf8\x7f\xc9\xf1\xa7\xfa\xb6@'
p2732
tp2733
Rp2734
ag7
(g11
S'\xe4\xaeT\x9e\xc4\xfd\xb6@'
p2735
tp2736
Rp2737
ag7
(g11
S'\xfc\xf6\xa6\xfd\x92\x00\xb7@'
p2738
tp2739
Rp2740
ag7
(g11
S'\xcc\xd8\xa9\xb7\xed\x01\xb7@'
p2741
tp2742
Rp2743
ag7
(g11
S'+\x8c\x81Pi\x03\xb7@'
p2744
tp2745
Rp2746
ag7
(g11
S'\xee\xf3N\xf4\xe6\x07\xb7@'
p2747
tp2748
Rp2749
ag7
(g11
S'T\x9a\xd8{\xb5\x0b\xb7@'
p2750
tp2751
Rp2752
ag7
(g11
S'P\x8a\x897y\x11\xb7@'
p2753
tp2754
Rp2755
ag7
(g11
S'X\xaf\xff\xfe\xda\x14\xb7@'
p2756
tp2757
Rp2758
ag7
(g11
S'\x8c\xdcvs\x0f\x18\xb7@'
p2759
tp2760
Rp2761
ag7
(g11
S'\xda\xc8\x7f\xa9\xc8\x1a\xb7@'
p2762
tp2763
Rp2764
ag7
(g11
S'\x85\xbeW\xce\xcc\x1e\xb7@'
p2765
tp2766
Rp2767
ag7
(g11
S'\x16\x82\xd1\xdaD%\xb7@'
p2768
tp2769
Rp2770
ag7
(g11
S'\x024EE2&\xb7@'
p2771
tp2772
Rp2773
ag7
(g11
S'\xbd\x89\xe0\r\xff&\xb7@'
p2774
tp2775
Rp2776
ag7
(g11
S'#\x98\xbe\xb2\xe5(\xb7@'
p2777
tp2778
Rp2779
ag7
(g11
S'B`4\xa8\xce)\xb7@'
p2780
tp2781
Rp2782
ag7
(g11
S'\n\xef\xbb_50\xb7@'
p2783
tp2784
Rp2785
ag7
(g11
S'g\xd0\x95\x8e\x811\xb7@'
p2786
tp2787
Rp2788
ag7
(g11
S'M\xc2w$p2\xb7@'
p2789
tp2790
Rp2791
ag7
(g11
S'\xb3\xf5\xfb\xd9\xe82\xb7@'
p2792
tp2793
Rp2794
ag7
(g11
S'3I4\xca\xae4\xb7@'
p2795
tp2796
Rp2797
ag7
(g11
S't^\x00\x95\x936\xb7@'
p2798
tp2799
Rp2800
ag7
(g11
S'\xa7\xbd&\x04D7\xb7@'
p2801
tp2802
Rp2803
ag7
(g11
S'\xc6\x83\xcc\xf8j8\xb7@'
p2804
tp2805
Rp2806
ag7
(g11
S'.\xc1\xdc]\xa7<\xb7@'
p2807
tp2808
Rp2809
ag7
(g11
S'&\xd0\xec\xf0$=\xb7@'
p2810
tp2811
Rp2812
ag7
(g11
S'\x9f\x1a\x84E\xaaA\xb7@'
p2813
tp2814
Rp2815
ag7
(g11
S'x\x18"\xf1qC\xb7@'
p2816
tp2817
Rp2818
ag7
(g11
S'\xde\xab\x10\xa7\x1dD\xb7@'
p2819
tp2820
Rp2821
ag7
(g11
S'v|\xeep\x8bG\xb7@'
p2822
tp2823
Rp2824
ag7
(g11
S'`p*d\xaeH\xb7@'
p2825
tp2826
Rp2827
ag7
(g11
S'b\x9e\x86dXL\xb7@'
p2828
tp2829
Rp2830
ag7
(g11
S'\xcf\xf4\xa6\xfe2P\xb7@'
p2831
tp2832
Rp2833
ag7
(g11
S'&\xbb0\x87\x86Q\xb7@'
p2834
tp2835
Rp2836
ag7
(g11
S'\xd2\xe4\x0f\x05uS\xb7@'
p2837
tp2838
Rp2839
ag7
(g11
S'9\xfa\x98@\xa6U\xb7@'
p2840
tp2841
Rp2842
ag7
(g11
S'\xf9\xf6&"-W\xb7@'
p2843
tp2844
Rp2845
ag7
(g11
S'l\xa4\xbf\xc3\xb9a\xb7@'
p2846
tp2847
Rp2848
ag7
(g11
S'\x12e\xb2\xca=c\xb7@'
p2849
tp2850
Rp2851
ag7
(g11
S'\r\x0329\x13e\xb7@'
p2852
tp2853
Rp2854
ag7
(g11
S'\xbc\x9f\n\xf8\xfdf\xb7@'
p2855
tp2856
Rp2857
ag7
(g11
S'?\xe2\xf9\xb6\x1bj\xb7@'
p2858
tp2859
Rp2860
ag7
(g11
S'\xaf\xd6$\xab\x85l\xb7@'
p2861
tp2862
Rp2863
ag7
(g11
S'\x9824\xad\xf3n\xb7@'
p2864
tp2865
Rp2866
ag7
(g11
S'A\xbd\xce\xbf\xaep\xb7@'
p2867
tp2868
Rp2869
ag7
(g11
S'\x10T\xf2< q\xb7@'
p2870
tp2871
Rp2872
ag7
(g11
S'\x07Kd\xef\x1au\xb7@'
p2873
tp2874
Rp2875
ag7
(g11
S'\x9aC?\xd5\x88u\xb7@'
p2876
tp2877
Rp2878
ag7
(g11
S'\x05\xaf(\xd3\x19w\xb7@'
p2879
tp2880
Rp2881
ag7
(g11
S'S\xcf\x83Z\x16z\xb7@'
p2882
tp2883
Rp2884
ag7
(g11
S'\xf3\x07\xd2jy{\xb7@'
p2885
tp2886
Rp2887
ag7
(g11
S'0\x0c\x12{\x8a}\xb7@'
p2888
tp2889
Rp2890
ag7
(g11
S'\x17H \xfe[\x7f\xb7@'
p2891
tp2892
Rp2893
ag7
(g11
S'\xc0~(\xce\x16\x85\xb7@'
p2894
tp2895
Rp2896
ag7
(g11
S'\x8c(\xd6\xbc\x1c\x89\xb7@'
p2897
tp2898
Rp2899
ag7
(g11
S'(Engd\x8e\xb7@'
p2900
tp2901
Rp2902
ag7
(g11
S'D\xce\xde\x89!\x90\xb7@'
p2903
tp2904
Rp2905
ag7
(g11
S'#\xc4T\xc4\x16\x93\xb7@'
p2906
tp2907
Rp2908
ag7
(g11
S'9\x8d\x97C\xde\x95\xb7@'
p2909
tp2910
Rp2911
ag7
(g11
S'\x9f\x8b[6\x87\x96\xb7@'
p2912
tp2913
Rp2914
ag7
(g11
S'\xe6\xc60A\xa1\x9b\xb7@'
p2915
tp2916
Rp2917
ag7
(g11
S'\xbb\xe6\xb6\x84\xc5\x9e\xb7@'
p2918
tp2919
Rp2920
ag7
(g11
S'8w\xcch\x17\xa1\xb7@'
p2921
tp2922
Rp2923
ag7
(g11
S'^\x16\xc8\x83\xde\xa2\xb7@'
p2924
tp2925
Rp2926
ag7
(g11
S'\x0b\x1dW.S\x9c\xb7@'
p2927
tp2928
Rp2929
ag7
(g11
S'\xda<\xcc\xd1S\xa5\xb7@'
p2930
tp2931
Rp2932
ag7
(g11
S'\xde\xa8\x15t\x84\xa7\xb7@'
p2933
tp2934
Rp2935
ag7
(g11
S'\x03d%-S\xab\xb7@'
p2936
tp2937
Rp2938
ag7
(g11
S'\xda\x81Jc`\xad\xb7@'
p2939
tp2940
Rp2941
ag7
(g11
S'vD8\xa1\xef4\xb6@'
p2942
tp2943
Rp2944
ag7
(g11
S'\x05\x08W8\x859\xb6@'
p2945
tp2946
Rp2947
ag7
(g11
S'Q\xe5_k\x89;\xb6@'
p2948
tp2949
Rp2950
ag7
(g11
S'o]\x1f7.B\xb6@'
p2951
tp2952
Rp2953
ag7
(g11
S'\xac\x965O{F\xb6@'
p2954
tp2955
Rp2956
ag7
(g11
S'\x99\xc1\x0cd@H\xb6@'
p2957
tp2958
Rp2959
ag7
(g11
S'\xd7b\xc7:\x07K\xb6@'
p2960
tp2961
Rp2962
ag7
(g11
S'\xef{M\xdexL\xb6@'
p2963
tp2964
Rp2965
ag7
(g11
S'E\x1e3\xfaUP\xb6@'
p2966
tp2967
Rp2968
ag7
(g11
S'H\xde\xd2\xe5\x15U\xb6@'
p2969
tp2970
Rp2971
ag7
(g11
S'\xe9\n\xb3\x84\x9bW\xb6@'
p2972
tp2973
Rp2974
ag7
(g11
S'1_l\x9f-X\xb6@'
p2975
tp2976
Rp2977
ag7
(g11
S'\xe0m\xf5\xad]]\xb6@'
p2978
tp2979
Rp2980
ag7
(g11
S'$q\x91\xb8\x90_\xb6@'
p2981
tp2982
Rp2983
ag7
(g11
S'\xc0\x84\x15\xc0\xe4g\xb6@'
p2984
tp2985
Rp2986
ag7
(g11
S'\xd8\xdf\x94H\x1cj\xb6@'
p2987
tp2988
Rp2989
ag7
(g11
S'L\x88zi\x95k\xb6@'
p2990
tp2991
Rp2992
ag7
(g11
S'\xe1\x98E!\x0fm\xb6@'
p2993
tp2994
Rp2995
ag7
(g11
S'\xb7u\x81\xeb\ty\xb6@'
p2996
tp2997
Rp2998
ag7
(g11
S'X);V\x86\x80\xb6@'
p2999
tp3000
Rp3001
ag7
(g11
S'\xd5p\x03\xd5z\x83\xb6@'
p3002
tp3003
Rp3004
ag7
(g11
S'\x97\x11 f\xa7\x87\xb6@'
p3005
tp3006
Rp3007
ag7
(g11
S'\xe64\xd1\xf0 \x88\xb6@'
p3008
tp3009
Rp3010
ag7
(g11
S'\xeec\x19\x8cn\x89\xb6@'
p3011
tp3012
Rp3013
ag7
(g11
S'9\xca\x95&\xe8\x89\xb6@'
p3014
tp3015
Rp3016
ag7
(g11
S'\xd8 fK\x8f\x8b\xb6@'
p3017
tp3018
Rp3019
ag7
(g11
S'lV\x89\xc7\x01\x8c\xb6@'
p3020
tp3021
Rp3022
ag7
(g11
S'\xdd|\x83\x9c\xe2\x8d\xb6@'
p3023
tp3024
Rp3025
ag7
(g11
S'V,Nj\x08\x90\xb6@'
p3026
tp3027
Rp3028
ag7
(g11
S'\xc3c\xa6\xd5A\x91\xb6@'
p3029
tp3030
Rp3031
ag7
(g11
S'\x8e\xba\x05\x98\x8c\x93\xb6@'
p3032
tp3033
Rp3034
ag7
(g11
S'\xf7<\x84\xb6\x1e\x96\xb6@'
p3035
tp3036
Rp3037
ag7
(g11
S'\xb2\xa4\x93Tl\x97\xb6@'
p3038
tp3039
Rp3040
ag7
(g11
S'\x80\x89\xfa\xf7J\x9a\xb6@'
p3041
tp3042
Rp3043
ag7
(g11
S'=\xe4\xe0\xa7\xa9\x9d\xb6@'
p3044
tp3045
Rp3046
ag7
(g11
S'A\xe3\x02\xeb4\x9e\xb6@'
p3047
tp3048
Rp3049
ag7
(g11
S'\x9d\xba\x86F~\x9f\xb6@'
p3050
tp3051
Rp3052
ag7
(g11
S'\xcf$\x1eEc\xa0\xb6@'
p3053
tp3054
Rp3055
ag7
(g11
S'H~~\x98\xde\xa3\xb6@'
p3056
tp3057
Rp3058
ag7
(g11
S'\xc7\x81\xbf\xa9R\xa4\xb6@'
p3059
tp3060
Rp3061
ag7
(g11
S'6c\xe0\xf0\x1a\xa5\xb6@'
p3062
tp3063
Rp3064
ag7
(g11
S'\x18x\xf6\xa0a\xa6\xb6@'
p3065
tp3066
Rp3067
ag7
(g11
S'\x87aOM\xef\xa8\xb6@'
p3068
tp3069
Rp3070
ag7
(g11
S'\x89\xf9]\xf2\xfc\xa9\xb6@'
p3071
tp3072
Rp3073
ag7
(g11
S'\xfd\x02\xe6\xe5 \xac\xb6@'
p3074
tp3075
Rp3076
ag7
(g11
S'i\x1c\x8e\xces\xaf\xb6@'
p3077
tp3078
Rp3079
ag7
(g11
S'g\xb9\x88\n^\xb5\xb6@'
p3080
tp3081
Rp3082
ag7
(g11
S'\xc6Dh!I\xb7\xb6@'
p3083
tp3084
Rp3085
ag7
(g11
S'\x14Y\x1d\xa3M\xba\xb6@'
p3086
tp3087
Rp3088
ag7
(g11
S'\xa6\x95y^\xf2\xba\xb6@'
p3089
tp3090
Rp3091
ag7
(g11
S'\x91\x9c\xa57q\xbb\xb6@'
p3092
tp3093
Rp3094
ag7
(g11
S'@h\xe8>\xf8\xbd\xb6@'
p3095
tp3096
Rp3097
ag7
(g11
S'&i&\x06\xa9\xbe\xb6@'
p3098
tp3099
Rp3100
ag7
(g11
S'\xff\x83\xd4\x892\xc2\xb6@'
p3101
tp3102
Rp3103
ag7
(g11
S'\x81\x9f\xbc4\xaa\xc6\xb6@'
p3104
tp3105
Rp3106
ag7
(g11
S'\xf7\x14R\x05+\xc8\xb6@'
p3107
tp3108
Rp3109
ag7
(g11
S'!\x02\x15\xd4@\xca\xb6@'
p3110
tp3111
Rp3112
ag7
(g11
S'YI\xf1\xd9\xb2\xce\xb6@'
p3113
tp3114
Rp3115
ag7
(g11
S'.\xb6\x0e\xa0r\xd0\xb6@'
p3116
tp3117
Rp3118
ag7
(g11
S'b\xe9y\xe9\xa7\xd3\xb6@'
p3119
tp3120
Rp3121
ag7
(g11
S'y\x06\xdaA\xbf\xd5\xb6@'
p3122
tp3123
Rp3124
ag7
(g11
S'\x91 S\x14\xb0\xdc\xb6@'
p3125
tp3126
Rp3127
ag7
(g11
S'\xc6\xc4\x19\x16c\xdd\xb6@'
p3128
tp3129
Rp3130
ag7
(g11
S'\xf9yV\xb7\x05\xde\xb6@'
p3131
tp3132
Rp3133
ag7
(g11
S"\xf2\x88\x91'N\xe4\xb6@"
p3134
tp3135
Rp3136
ag7
(g11
S'pi\x17\xa2\xad\xe7\xb6@'
p3137
tp3138
Rp3139
ag7
(g11
S'%\xafU\x06\xb7\xea\xb6@'
p3140
tp3141
Rp3142
ag7
(g11
S'\xe4\xe2#Y\xc2\xed\xb6@'
p3143
tp3144
Rp3145
ag7
(g11
S'c3\xadK\x16\xef\xb6@'
p3146
tp3147
Rp3148
ag7
(g11
S'\xdef\xf9j|\xf0\xb6@'
p3149
tp3150
Rp3151
ag7
(g11
S'\x11Na\x11\xe5\xf1\xb6@'
p3152
tp3153
Rp3154
ag7
(g11
S'\x85K\x88\x81\xa0\xf2\xb6@'
p3155
tp3156
Rp3157
ag7
(g11
S'\xa1\xd3\xc1y\xc2\xf9\xb6@'
p3158
tp3159
Rp3160
ag7
(g11
S'\x07nD&\xa2\xfa\xb6@'
p3161
tp3162
Rp3163
ag7
(g11
S'\x87\n>\xfa\xbe\xfd\xb6@'
p3164
tp3165
Rp3166
ag7
(g11
S'\x82\xf8\xfe>\x94\x00\xb7@'
p3167
tp3168
Rp3169
ag7
(g11
S'\xf7\xe1\xcbZ\xf1\x01\xb7@'
p3170
tp3171
Rp3172
ag7
(g11
S'l\x11s\xc7X\x03\xb7@'
p3173
tp3174
Rp3175
ag7
(g11
S'R\xfb\xaaW)\x07\xb7@'
p3176
tp3177
Rp3178
ag7
(g11
S'\x8c:o\xcb\xe9\x07\xb7@'
p3179
tp3180
Rp3181
ag7
(g11
S'|\x83\x91\xb4\xa2\x0b\xb7@'
p3182
tp3183
Rp3184
ag7
(g11
S'|\x1f\x03rx\x0e\xb7@'
p3185
tp3186
Rp3187
ag7
(g11
S'\x85L|s\x06\x10\xb7@'
p3188
tp3189
Rp3190
ag7
(g11
S'\xc1T\x97s|\x11\xb7@'
p3191
tp3192
Rp3193
ag7
(g11
S'\xefF\xd5\xb3\xb6\xa6\xb5@'
p3194
tp3195
Rp3196
ag7
(g11
S'\x14Z\xdf\x8a\xea\xa8\xb5@'
p3197
tp3198
Rp3199
ag7
(g11
S'\xd7<N\xdb\xf2\xab\xb5@'
p3200
tp3201
Rp3202
ag7
(g11
S'%\x83\x8c?\xda\xb1\xb5@'
p3203
tp3204
Rp3205
ag7
(g11
S'\x86\x11\x1f\xa6A\xb3\xb5@'
p3206
tp3207
Rp3208
ag7
(g11
S'\x87>w]\xfc\xb3\xb5@'
p3209
tp3210
Rp3211
ag7
(g11
S'Y\xd7g\xb2\xd8\xb4\xb5@'
p3212
tp3213
Rp3214
ag7
(g11
S'5y\xe6\xabD\xb6\xb5@'
p3215
tp3216
Rp3217
ag7
(g11
S'+\xe6,\xbd\xf4\xb6\xb5@'
p3218
tp3219
Rp3220
ag7
(g11
S'K\xbe0\x00\xd8\xb7\xb5@'
p3221
tp3222
Rp3223
ag7
(g11
S'\x84\xc2\xa4j\xa8\xbf\xb5@'
p3224
tp3225
Rp3226
ag7
(g11
S"\x85f'{\x1b\xc3\xb5@"
p3227
tp3228
Rp3229
ag7
(g11
S'nd\xaf\xe3s\xc4\xb5@'
p3230
tp3231
Rp3232
ag7
(g11
S'\x05a\x9c\x1b^\xc5\xb5@'
p3233
tp3234
Rp3235
ag7
(g11
S'W\x0cq\xb3!\xc8\xb5@'
p3236
tp3237
Rp3238
ag7
(g11
S'\x19\xd5\xe3aR\xc9\xb5@'
p3239
tp3240
Rp3241
ag7
(g11
S'H\x84\xc2JZ\xca\xb5@'
p3242
tp3243
Rp3244
ag7
(g11
S'\xa5\x05>\x98>\xcb\xb5@'
p3245
tp3246
Rp3247
ag7
(g11
S'\x01\x1f\x98\xeb\xaf\xcd\xb5@'
p3248
tp3249
Rp3250
ag7
(g11
S'\x1aZ\xc6^P\xd3\xb5@'
p3251
tp3252
Rp3253
ag7
(g11
S'\x8e\x92\\Us\xd4\xb5@'
p3254
tp3255
Rp3256
ag7
(g11
S'Cb*ar\xd9\xb5@'
p3257
tp3258
Rp3259
ag7
(g11
S'o\xb1j\x86\xf5\xda\xb5@'
p3260
tp3261
Rp3262
ag7
(g11
S'\xd6\x88\xdc\xe29\xdd\xb5@'
p3263
tp3264
Rp3265
ag7
(g11
S'KL\xaf\x9f\x9e\xe1\xb5@'
p3266
tp3267
Rp3268
ag7
(g11
S'$w\x9aHE\xe4\xb5@'
p3269
tp3270
Rp3271
ag7
(g11
S'\x13E4A\xb7\xe6\xb5@'
p3272
tp3273
Rp3274
ag7
(g11
S'\x10\xe7\x87qx\xea\xb5@'
p3275
tp3276
Rp3277
ag7
(g11
S'w\xc4\x8f\xe7\xef\xeb\xb5@'
p3278
tp3279
Rp3280
ag7
(g11
S'R\x81ViT\xef\xb5@'
p3281
tp3282
Rp3283
ag7
(g11
S'~?\x99+\xd4\xf1\xb5@'
p3284
tp3285
Rp3286
ag7
(g11
S'\xf7\xc8\x1a\x8e\xcb\xf3\xb5@'
p3287
tp3288
Rp3289
ag7
(g11
S'vRN(\xd6\xf4\xb5@'
p3290
tp3291
Rp3292
ag7
(g11
S'\x80\x11\xe0m\xb1\xf7\xb5@'
p3293
tp3294
Rp3295
ag7
(g11
S'\xd7\xf0\xf1\x8f\xd3\xf8\xb5@'
p3296
tp3297
Rp3298
ag7
(g11
S'm\x92v\x0cu\xf9\xb5@'
p3299
tp3300
Rp3301
ag7
(g11
S'v\xf7\xc4\x17#\xfe\xb5@'
p3302
tp3303
Rp3304
ag7
(g11
S'\x9fp\xc7\xcc\x02\xff\xb5@'
p3305
tp3306
Rp3307
ag7
(g11
S'\x1c\x0c3V-\x01\xb6@'
p3308
tp3309
Rp3310
ag7
(g11
S',|\xd6\xf6\x89\x02\xb6@'
p3311
tp3312
Rp3313
ag7
(g11
S'\xa2\xac\x8f\xc0x\x03\xb6@'
p3314
tp3315
Rp3316
ag7
(g11
S'\x82|\xdf\n\xc7\x03\xb6@'
p3317
tp3318
Rp3319
ag7
(g11
S')L\xc1\xca3\x05\xb6@'
p3320
tp3321
Rp3322
ag7
(g11
S'\x8f\xf1T\x04\xed\x06\xb6@'
p3323
tp3324
Rp3325
ag7
(g11
S'\xa6\x00\x1b\xa9\xb1\x07\xb6@'
p3326
tp3327
Rp3328
ag7
(g11
S'i\x91{wP\t\xb6@'
p3329
tp3330
Rp3331
ag7
(g11
S'*\xcf\x80lL\x0e\xb6@'
p3332
tp3333
Rp3334
ag7
(g11
S'~$9\x8b\x9b\x10\xb6@'
p3335
tp3336
Rp3337
ag7
(g11
S'\x89$\x937B\x12\xb6@'
p3338
tp3339
Rp3340
ag7
(g11
S'\xc7\xb1\x807\xeb\x12\xb6@'
p3341
tp3342
Rp3343
ag7
(g11
S'\xcf\x8fwe\xcd\x15\xb6@'
p3344
tp3345
Rp3346
ag7
(g11
S'\x93\x85\x120[\x16\xb6@'
p3347
tp3348
Rp3349
ag7
(g11
S'\xce\x1b\x95_\xcc\x19\xb6@'
p3350
tp3351
Rp3352
ag7
(g11
S'\x98w\xb4C\n\x1b\xb6@'
p3353
tp3354
Rp3355
ag7
(g11
S'5\x14\xf0\xce\xda\x1e\xb6@'
p3356
tp3357
Rp3358
ag7
(g11
S'0\xf0\xccp\x84 \xb6@'
p3359
tp3360
Rp3361
ag7
(g11
S'\xb5\t\xd4\xe60!\xb6@'
p3362
tp3363
Rp3364
ag7
(g11
S'\xbc0\x99\xeft!\xb6@'
p3365
tp3366
Rp3367
ag7
(g11
S'n\x00\xaa\x15\xfc"\xb6@'
p3368
tp3369
Rp3370
ag7
(g11
S'r+\x14\x17\xc3)\xb6@'
p3371
tp3372
Rp3373
ag7
(g11
S'<\x94:Z\xe4*\xb6@'
p3374
tp3375
Rp3376
ag7
(g11
S'\x94\x88V\xee\xe6,\xb6@'
p3377
tp3378
Rp3379
ag7
(g11
S'\x98`\x16\xc7\xd0.\xb6@'
p3380
tp3381
Rp3382
ag7
(g11
S'\xde\xe29\x00\xac/\xb6@'
p3383
tp3384
Rp3385
ag7
(g11
S'\x96cq\x88Y1\xb6@'
p3386
tp3387
Rp3388
ag7
(g11
S'V\xe6\x03\xf7\xbf1\xb6@'
p3389
tp3390
Rp3391
ag7
(g11
S'\x91\xec\x8dr\x983\xb6@'
p3392
tp3393
Rp3394
ag7
(g11
S'u`}\xf7\x185\xb6@'
p3395
tp3396
Rp3397
ag7
(g11
S'k\\\x93\xdb\xb96\xb6@'
p3398
tp3399
Rp3400
ag7
(g11
S'p_\x91\xbf37\xb6@'
p3401
tp3402
Rp3403
ag7
(g11
S'\x0f\xb40\x14\x899\xb6@'
p3404
tp3405
Rp3406
ag7
(g11
S'\x7f|\xdbX\xd39\xb6@'
p3407
tp3408
Rp3409
ag7
(g11
S'\xb1E\x11\xbb\x93;\xb6@'
p3410
tp3411
Rp3412
ag7
(g11
S'\r qHG@\xb6@'
p3413
tp3414
Rp3415
ag7
(g11
S'(h\x06\xa8&B\xb6@'
p3416
tp3417
Rp3418
ag7
(g11
S'6\x06^\xa8bD\xb6@'
p3419
tp3420
Rp3421
ag7
(g11
S'\x98\x16\xbf\x96\xeaD\xb6@'
p3422
tp3423
Rp3424
ag7
(g11
S'\xe8\xfcp\x9d\x82F\xb6@'
p3425
tp3426
Rp3427
ag7
(g11
S'z1q 7H\xb6@'
p3428
tp3429
Rp3430
ag7
(g11
S'\x08\xe9e\xa8\x18K\xb6@'
p3431
tp3432
Rp3433
ag7
(g11
S'}\xb4 \xb1\x88L\xb6@'
p3434
tp3435
Rp3436
ag7
(g11
S'\x91\x8a\n\xdb\nU\xb6@'
p3437
tp3438
Rp3439
ag7
(g11
S'\xfc8A/SP\xb6@'
p3440
tp3441
Rp3442
ag7
(g11
S'NAK\xe4\x97W\xb6@'
p3443
tp3444
Rp3445
ag7
(g11
S'2g\x01\x86+X\xb6@'
p3446
tp3447
Rp3448
ag7
(g11
S']\x1d\xc1\x98!\\\xb6@'
p3449
tp3450
Rp3451
ag7
(g11
S'tVR\xee]\\\xb6@'
p3452
tp3453
Rp3454
ag7
(g11
S'\x1ak\x94\x84\xec\\\xb6@'
p3455
tp3456
Rp3457
ag7
(g11
S'^\x8a\xc9\x03N]\xb6@'
p3458
tp3459
Rp3460
ag7
(g11
S'\xbc\xe6\xb3\xdd\x98_\xb6@'
p3461
tp3462
Rp3463
ag7
(g11
S'C@~\xf4\xebg\xb6@'
p3464
tp3465
Rp3466
ag7
(g11
S'\xa6\xfd\x8c\xa1\xbci\xb6@'
p3467
tp3468
Rp3469
ag7
(g11
S'\x94g\xcb\x88\x1cj\xb6@'
p3470
tp3471
Rp3472
ag7
(g11
S'\xc6W_\x8c\x8ck\xb6@'
p3473
tp3474
Rp3475
ag7
(g11
S'\xdcl\xba\xec\x15m\xb6@'
p3476
tp3477
Rp3478
ag7
(g11
S'z+W`\xb0m\xb6@'
p3479
tp3480
Rp3481
ag7
(g11
S'1\xa9;\x06\x1co\xb6@'
p3482
tp3483
Rp3484
ag7
(g11
S'oB\x92\x03\x1bs\xb6@'
p3485
tp3486
Rp3487
ag7
(g11
S'\xb6Q\xf2\xdb7t\xb6@'
p3488
tp3489
Rp3490
ag7
(g11
S'\x8e\x87.\x0b\x9dt\xb6@'
p3491
tp3492
Rp3493
ag7
(g11
S'\xb0\xa6\x8b_(u\xb6@'
p3494
tp3495
Rp3496
ag7
(g11
S'\xbe\x98\xa2e\x92u\xb6@'
p3497
tp3498
Rp3499
ag7
(g11
S'\xf6\xa9\xd9\xe7\x02y\xb6@'
p3500
tp3501
Rp3502
ag7
(g11
S'|\xd9O\x9a\x8c\x80\xb6@'
p3503
tp3504
Rp3505
ag7
(g11
S'\xfc\xc7\xd9\x9c0\x1f\xb5@'
p3506
tp3507
Rp3508
ag7
(g11
S'\xd9\x13\x11\xec\x8a\x1f\xb5@'
p3509
tp3510
Rp3511
ag7
(g11
S'\xf2\x0b \x94\xa9"\xb5@'
p3512
tp3513
Rp3514
ag7
(g11
S'\xe4\x01A\\T$\xb5@'
p3515
tp3516
Rp3517
ag7
(g11
S"\x05\xd4\xad\xaaG'\xb5@"
p3518
tp3519
Rp3520
ag7
(g11
S'\x9aR\xe9Lc)\xb5@'
p3521
tp3522
Rp3523
ag7
(g11
S'Q\x88\xe8\xa3&-\xb5@'
p3524
tp3525
Rp3526
ag7
(g11
S'\xd7\xf7p\xaaT/\xb5@'
p3527
tp3528
Rp3529
ag7
(g11
S'\x85\x90\xa6%\xbf/\xb5@'
p3530
tp3531
Rp3532
ag7
(g11
S'\xa8i\xa3\xaem1\xb5@'
p3533
tp3534
Rp3535
ag7
(g11
S'\xc61\x8bRH2\xb5@'
p3536
tp3537
Rp3538
ag7
(g11
S'\xf8\x82t\x84\xff4\xb5@'
p3539
tp3540
Rp3541
ag7
(g11
S'\x8c\xa6\x0c\x96|5\xb5@'
p3542
tp3543
Rp3544
ag7
(g11
S'\n\x02)\xad\x047\xb5@'
p3545
tp3546
Rp3547
ag7
(g11
S'*\x07\x8e\xcd\x1d9\xb5@'
p3548
tp3549
Rp3550
ag7
(g11
S'\x00\xb8\\6\x01:\xb5@'
p3551
tp3552
Rp3553
ag7
(g11
S'\xfbf\x03\xac\x01;\xb5@'
p3554
tp3555
Rp3556
ag7
(g11
S'\xec+b\x81\xd1;\xb5@'
p3557
tp3558
Rp3559
ag7
(g11
S"`\x81'\x03*=\xb5@"
p3560
tp3561
Rp3562
ag7
(g11
S'd}\x08\xec\x05>\xb5@'
p3563
tp3564
Rp3565
ag7
(g11
S'\xd8\xf0\x9c\xe0\xd6?\xb5@'
p3566
tp3567
Rp3568
ag7
(g11
S'\xcf\x0e\xa0\xe9q@\xb5@'
p3569
tp3570
Rp3571
ag7
(g11
S't\x8e\xf1\x06\rB\xb5@'
p3572
tp3573
Rp3574
ag7
(g11
S'!\x9a\xbd\x7f\x8dC\xb5@'
p3575
tp3576
Rp3577
ag7
(g11
S'\xb6J\xeb\xdb\x00G\xb5@'
p3578
tp3579
Rp3580
ag7
(g11
S'\xfa\x9ay\x8adI\xb5@'
p3581
tp3582
Rp3583
ag7
(g11
S'\xef\x15E\xdf}K\xb5@'
p3584
tp3585
Rp3586
ag7
(g11
S"|K\xa2\x02'L\xb5@"
p3587
tp3588
Rp3589
ag7
(g11
S'\xe2\xa2\xf0\x03iM\xb5@'
p3590
tp3591
Rp3592
ag7
(g11
S'5jg}-N\xb5@'
p3593
tp3594
Rp3595
ag7
(g11
S'p\xfd&\xf40Q\xb5@'
p3596
tp3597
Rp3598
ag7
(g11
S'\x9a\x8cmC\x18X\xb5@'
p3599
tp3600
Rp3601
ag7
(g11
S'\x0c\xbd-\x00\x9eY\xb5@'
p3602
tp3603
Rp3604
ag7
(g11
S'\xbf\xb6Y\xa5\x03[\xb5@'
p3605
tp3606
Rp3607
ag7
(g11
S'<\xd8\xc9\xe5\xf9\\\xb5@'
p3608
tp3609
Rp3610
ag7
(g11
S"Ec'\xb3\x98^\xb5@"
p3611
tp3612
Rp3613
ag7
(g11
S'\xab\xfc\x9f\x04V_\xb5@'
p3614
tp3615
Rp3616
ag7
(g11
S'(h\xb8\x16Ta\xb5@'
p3617
tp3618
Rp3619
ag7
(g11
S'6\xcb\xbem\xf2f\xb5@'
p3620
tp3621
Rp3622
ag7
(g11
S'\xc6\xd5\xf5\xd5\xe4i\xb5@'
p3623
tp3624
Rp3625
ag7
(g11
S'\xd0Q[\xb0\xf2q\xb5@'
p3626
tp3627
Rp3628
ag7
(g11
S'\xd5/s\xfb\x90t\xb5@'
p3629
tp3630
Rp3631
ag7
(g11
S'\xdd\xd7\xdcV\x12u\xb5@'
p3632
tp3633
Rp3634
ag7
(g11
S'f6\xe5H,v\xb5@'
p3635
tp3636
Rp3637
ag7
(g11
S'!\x88\x10\xff\xdbw\xb5@'
p3638
tp3639
Rp3640
ag7
(g11
S'\x92\xaae9\x12z\xb5@'
p3641
tp3642
Rp3643
ag7
(g11
S'\x80\r\x15\x97m{\xb5@'
p3644
tp3645
Rp3646
ag7
(g11
S'\xfd\xb4\xf1\t\x80{\xb5@'
p3647
tp3648
Rp3649
ag7
(g11
S'\xa1\xc3\x0f\xa6$|\xb5@'
p3650
tp3651
Rp3652
ag7
(g11
S'\xa6+\xb4\x0b\x15}\xb5@'
p3653
tp3654
Rp3655
ag7
(g11
S'\xdd\x9f\x89a\xc5}\xb5@'
p3656
tp3657
Rp3658
ag7
(g11
S'7\xc2@d\x1b\x7f\xb5@'
p3659
tp3660
Rp3661
ag7
(g11
S"\xb2\x821a'\x80\xb5@"
p3662
tp3663
Rp3664
ag7
(g11
S'w\x15\xa6\xa0\xbc\x80\xb5@'
p3665
tp3666
Rp3667
ag7
(g11
S'\xae\xf0\xd7\xb8\xf8\x81\xb5@'
p3668
tp3669
Rp3670
ag7
(g11
S'\xb22z\xec\xd9\x82\xb5@'
p3671
tp3672
Rp3673
ag7
(g11
S'kM\xc5\xbds\x83\xb5@'
p3674
tp3675
Rp3676
ag7
(g11
S'kC\xcfMn\x84\xb5@'
p3677
tp3678
Rp3679
ag7
(g11
S'\x953\xb1t\xcf\x85\xb5@'
p3680
tp3681
Rp3682
ag7
(g11
S'$BA\xd82\x8a\xb5@'
p3683
tp3684
Rp3685
ag7
(g11
S'\x03\xe2zL\xbe\x8a\xb5@'
p3686
tp3687
Rp3688
ag7
(g11
S'\xc6t\xbf\x99\xcd\x8e\xb5@'
p3689
tp3690
Rp3691
ag7
(g11
S'*\x00\xf6k\x98\x91\xb5@'
p3692
tp3693
Rp3694
ag7
(g11
S'vk\xa4*q\x94\xb5@'
p3695
tp3696
Rp3697
ag7
(g11
S'Ma_p\xdb\x94\xb5@'
p3698
tp3699
Rp3700
ag7
(g11
S'\xbc\x85$Y5\x97\xb5@'
p3701
tp3702
Rp3703
ag7
(g11
S'\x0f}\xa7\x9e\x1d\x98\xb5@'
p3704
tp3705
Rp3706
ag7
(g11
S'\x9a\xc3\x9aSW\x9e\xb5@'
p3707
tp3708
Rp3709
ag7
(g11
S'p\xb9\xf6\xbdp\xa2\xb5@'
p3710
tp3711
Rp3712
ag7
(g11
S'\x8e\x1dDAL\xa3\xb5@'
p3713
tp3714
Rp3715
ag7
(g11
S'\xdb\x88\xb4}\xd6\xa3\xb5@'
p3716
tp3717
Rp3718
ag7
(g11
S'7\xbf\x92\xd8a\xa5\xb5@'
p3719
tp3720
Rp3721
ag7
(g11
S'\xe40\x94Z\xad\xa6\xb5@'
p3722
tp3723
Rp3724
ag7
(g11
S'\x00\x11z\x03\xd7\xa8\xb5@'
p3725
tp3726
Rp3727
ag7
(g11
S'c\xa2\x8a(\xf1\xa9\xb5@'
p3728
tp3729
Rp3730
ag7
(g11
S'\x9c\x1c\xa8@\x14\xac\xb5@'
p3731
tp3732
Rp3733
ag7
(g11
S' \x14\x08rN\xaf\xb5@'
p3734
tp3735
Rp3736
ag7
(g11
S'\x8deJ\x1a\xac\xb1\xb5@'
p3737
tp3738
Rp3739
ag7
(g11
S'\x19m\xef\x13n\xb3\xb5@'
p3740
tp3741
Rp3742
ag7
(g11
S'\xa7\xd5\x15\x00\x06\xb4\xb5@'
p3743
tp3744
Rp3745
ag7
(g11
S')\x85D\xd2\xef\xb4\xb5@'
p3746
tp3747
Rp3748
ag7
(g11
S'\x00\x11z\x03\xd7\xa8\xb5@'
p3749
tp3750
Rp3751
ag7
(g11
S'}1\x8a.\xa9\xa9\xb5@'
p3752
tp3753
Rp3754
ag7
(g11
S'c\xa2\x8a(\xf1\xa9\xb5@'
p3755
tp3756
Rp3757
ag7
(g11
S'\xcdO\xd9\xec\xe9\xaa\xb5@'
p3758
tp3759
Rp3760
ag7
(g11
S'\x9c\x1c\xa8@\x14\xac\xb5@'
p3761
tp3762
Rp3763
ag7
(g11
S' \x14\x08rN\xaf\xb5@'
p3764
tp3765
Rp3766
ag7
(g11
S'\x8deJ\x1a\xac\xb1\xb5@'
p3767
tp3768
Rp3769
ag7
(g11
S'\x19m\xef\x13n\xb3\xb5@'
p3770
tp3771
Rp3772
ag7
(g11
S'\xa7\xd5\x15\x00\x06\xb4\xb5@'
p3773
tp3774
Rp3775
ag7
(g11
S')\x85D\xd2\xef\xb4\xb5@'
p3776
tp3777
Rp3778
ag7
(g11
S'\r\xaa\xbcDY\xb6\xb5@'
p3779
tp3780
Rp3781
ag7
(g11
S'k\x81}\xc9\xb3\xb6\xb5@'
p3782
tp3783
Rp3784
ag7
(g11
S'pE\xda\xc9\x90\xb7\xb5@'
p3785
tp3786
Rp3787
ag7
(g11
S'\xa0\x86\xc3\xe3\xdc\xb7\xb5@'
p3788
tp3789
Rp3790
ag7
(g11
S'\xac\xf7\xf6\xa4\xd6\xbf\xb5@'
p3791
tp3792
Rp3793
ag7
(g11
S'\xc9\xc3\xe3|m\xc4\xb5@'
p3794
tp3795
Rp3796
ag7
(g11
S'\x00\xb2?\xa1p\xc5\xb5@'
p3797
tp3798
Rp3799
ag7
(g11
S'\xde\x96\xbbG$\xc8\xb5@'
p3800
tp3801
Rp3802
ag7
(g11
S'\xb5\x0ea\xfe_\xc9\xb5@'
p3803
tp3804
Rp3805
ag7
(g11
S'\xfcm\xd3\x10G\xca\xb5@'
p3806
tp3807
Rp3808
ag7
(g11
S'\xee\xaaS\xb6>\xcb\xb5@'
p3809
tp3810
Rp3811
ag7
(g11
S'|\x9dC\x00\xe5\xcb\xb5@'
p3812
tp3813
Rp3814
ag7
(g11
S'\x86v\xd1\x82\xc7\xcd\xb5@'
p3815
tp3816
Rp3817
ag7
(g11
S'\xd9\x1b\x0e\xab\xa7\xcf\xb5@'
p3818
tp3819
Rp3820
ag7
(g11
S'\xdd\xf5\xa4\xf2\x02\xd3\xb5@'
p3821
tp3822
Rp3823
ag7
(g11
S'\\%\x1c\xf2\x9f\xd4\xb5@'
p3824
tp3825
Rp3826
ag7
(g11
S'\xe1K\xf8\xe1n\xd9\xb5@'
p3827
tp3828
Rp3829
ag7
(g11
S'~P\xe6M\xf8\xda\xb5@'
p3830
tp3831
Rp3832
ag7
(g11
S';\xd8\x17\x0b`\xdd\xb5@'
p3833
tp3834
Rp3835
ag7
(g11
S'8+\xcd\x89\xf6\xe0\xb5@'
p3836
tp3837
Rp3838
ag7
(g11
S'\xfb\xff\xc7\xe1\x9a\xe1\xb5@'
p3839
tp3840
Rp3841
ag7
(g11
S'\xa3v\x08/x\xe4\xb5@'
p3842
tp3843
Rp3844
ag7
(g11
S'r.\r\xfe\xb9\xe6\xb5@'
p3845
tp3846
Rp3847
ag7
(g11
S'\xecs\xb8\xca\x85\xea\xb5@'
p3848
tp3849
Rp3850
ag7
(g11
S'$\xe8( \xef\xeb\xb5@'
p3851
tp3852
Rp3853
ag7
(g11
S'\x88\x1b\xb4\xfdK\xef\xb5@'
p3854
tp3855
Rp3856
ag7
(g11
S'u\xdc\xd4\xd5\xda\xa0\xb4@'
p3857
tp3858
Rp3859
ag7
(g11
S'\x89\xdel\x86q\xa1\xb4@'
p3860
tp3861
Rp3862
ag7
(g11
S'e\xe5T\xca\xdd\xa5\xb4@'
p3863
tp3864
Rp3865
ag7
(g11
S'\x13\xbc?\xff\xa3\xa6\xb4@'
p3866
tp3867
Rp3868
ag7
(g11
S'\x02\xecx\x9b\xac\xab\xb4@'
p3869
tp3870
Rp3871
ag7
(g11
S'\xa0\x0bR\xb7\xa5\xad\xb4@'
p3872
tp3873
Rp3874
ag7
(g11
S'\x0eL\t\xae1\xae\xb4@'
p3875
tp3876
Rp3877
ag7
(g11
S'\x14S`6,\xb0\xb4@'
p3878
tp3879
Rp3880
ag7
(g11
S'\x87\xd3\xf1\x9f\x9d\xb1\xb4@'
p3881
tp3882
Rp3883
ag7
(g11
S'\x8c\x12:\xc1&\xb2\xb4@'
p3884
tp3885
Rp3886
ag7
(g11
S'\xa0qy\xaei\xb4\xb4@'
p3887
tp3888
Rp3889
ag7
(g11
S'\xdaf\x1e\xe1\xf7\xb2\xb4@'
p3890
tp3891
Rp3892
ag7
(g11
S'zx\x0e\x08c\xb9\xb4@'
p3893
tp3894
Rp3895
ag7
(g11
S'\xea\x1e\x9d~\xd7\xba\xb4@'
p3896
tp3897
Rp3898
ag7
(g11
S'\xeb\x87\xb2lQ\xbb\xb4@'
p3899
tp3900
Rp3901
ag7
(g11
S'\x1f\x9a\\\x1f\x00\xbe\xb4@'
p3902
tp3903
Rp3904
ag7
(g11
S'\xd0o\xb3?\xee\xbf\xb4@'
p3905
tp3906
Rp3907
ag7
(g11
S'\x07p\xc3\xb7v\xc0\xb4@'
p3908
tp3909
Rp3910
ag7
(g11
S'%|!\xed\xbe\xc0\xb4@'
p3911
tp3912
Rp3913
ag7
(g11
S'0b\x1f\xc8\x0e\xc3\xb4@'
p3914
tp3915
Rp3916
ag7
(g11
S'r\x8f\xef:]\xc5\xb4@'
p3917
tp3918
Rp3919
ag7
(g11
S'\xe2\xd2\xa6\x9d\xa7\xc8\xb4@'
p3920
tp3921
Rp3922
ag7
(g11
S'\xa4\xc6\xf0\xf3\x05\xce\xb4@'
p3923
tp3924
Rp3925
ag7
(g11
S';\xcf5!\xca\xce\xb4@'
p3926
tp3927
Rp3928
ag7
(g11
S'\xe2U\xb4\xf4\x8d\xd1\xb4@'
p3929
tp3930
Rp3931
ag7
(g11
S'\x88$_\x91\xf6\xd1\xb4@'
p3932
tp3933
Rp3934
ag7
(g11
S'\x06%\x1e8\xee\xd2\xb4@'
p3935
tp3936
Rp3937
ag7
(g11
S'ND\xb3\x19\xbf\xdf\xb4@'
p3938
tp3939
Rp3940
ag7
(g11
S'\xe4\xac\xd3\xff`\xe0\xb4@'
p3941
tp3942
Rp3943
ag7
(g11
S'D\xffe;\xd8\xe3\xb4@'
p3944
tp3945
Rp3946
ag7
(g11
S'O\xe2SS\x06\xe7\xb4@'
p3947
tp3948
Rp3949
ag7
(g11
S'/\xc5\xf0\x8bl\xeb\xb4@'
p3950
tp3951
Rp3952
ag7
(g11
S'N\xbf\xcd\x87\xf8\xee\xb4@'
p3953
tp3954
Rp3955
ag7
(g11
S'&\xbb4"\x0b\xf0\xb4@'
p3956
tp3957
Rp3958
ag7
(g11
S'\xa0\xf6j\xb1\xd7\xf0\xb4@'
p3959
tp3960
Rp3961
ag7
(g11
S'\x1b\xd3E;k\xf2\xb4@'
p3962
tp3963
Rp3964
ag7
(g11
S'"\xfb\xdc>\x04\xf4\xb4@'
p3965
tp3966
Rp3967
ag7
(g11
S'+\xf5\xb6\xa9\x96\xfa\xb4@'
p3968
tp3969
Rp3970
ag7
(g11
S'K)\x1cB\x9c\xfc\xb4@'
p3971
tp3972
Rp3973
ag7
(g11
S'\xac\x8b\x1c\x1cX\xfd\xb4@'
p3974
tp3975
Rp3976
ag7
(g11
S'\x14\xe4rF\xc3\xfe\xb4@'
p3977
tp3978
Rp3979
ag7
(g11
S'\xf8\xddsL+\xff\xb4@'
p3980
tp3981
Rp3982
ag7
(g11
S'\xba\xc5\xb1/\xd7\x01\xb5@'
p3983
tp3984
Rp3985
ag7
(g11
S'\x8c|\x9d\xae\xa1\x02\xb5@'
p3986
tp3987
Rp3988
ag7
(g11
S'&\x11\xc1\xca\xc3\x06\xb5@'
p3989
tp3990
Rp3991
ag7
(g11
S'\x8a\xe3\xa0\x93<\x08\xb5@'
p3992
tp3993
Rp3994
ag7
(g11
S'\x8a\xfa\xe1/\x81\n\xb5@'
p3995
tp3996
Rp3997
ag7
(g11
S'\x99\xc6F\x8e\xf6\x0b\xb5@'
p3998
tp3999
Rp4000
ag7
(g11
S'\xfa\xf4\xe7\x1fU\x0e\xb5@'
p4001
tp4002
Rp4003
ag7
(g11
S'!q\xca\xb2{\x10\xb5@'
p4004
tp4005
Rp4006
ag7
(g11
S'\xc4\xbe#\xe9j\x11\xb5@'
p4007
tp4008
Rp4009
ag7
(g11
S'\x138+s\xcd\x11\xb5@'
p4010
tp4011
Rp4012
ag7
(g11
S'1\x93\x86\xad\xa6\x12\xb5@'
p4013
tp4014
Rp4015
ag7
(g11
S'\x0cN\x1f\x93g\x15\xb5@'
p4016
tp4017
Rp4018
ag7
(g11
S'd\x02a\xf7l\x16\xb5@'
p4019
tp4020
Rp4021
ag7
(g11
S'\xeb\xc2\x85\r\x07\x17\xb5@'
p4022
tp4023
Rp4024
ag7
(g11
S'\xd0\xae_v\xf8\x17\xb5@'
p4025
tp4026
Rp4027
ag7
(g11
S'`LC\x98i\x1a\xb5@'
p4028
tp4029
Rp4030
ag7
(g11
S'\x0c\x8d&I\x11\x1b\xb5@'
p4031
tp4032
Rp4033
ag7
(g11
S'=\x8e\xc9\x81>\x1f\xb5@'
p4034
tp4035
Rp4036
ag7
(g11
S'G\xabd\x11\x9b\x1f\xb5@'
p4037
tp4038
Rp4039
ag7
(g11
S'(h[~\xbf"\xb5@'
p4040
tp4041
Rp4042
ag7
(g11
S'(\x06 O\x9d)\xb5@'
p4043
tp4044
Rp4045
ag7
(g11
S'$\xd1\xf330-\xb5@'
p4046
tp4047
Rp4048
ag7
(g11
S'7\xf0\xe0k\xea/\xb5@'
p4049
tp4050
Rp4051
ag7
(g11
S'\x9a\x9e\x9eG\x971\xb5@'
p4052
tp4053
Rp4054
ag7
(g11
S'p\x8e"iS2\xb5@'
p4055
tp4056
Rp4057
ag7
(g11
S'^Q.\xf1\xfc6\xb5@'
p4058
tp4059
Rp4060
ag7
(g11
S'\xd7\xf8\xc1\xe4\x05:\xb5@'
p4061
tp4062
Rp4063
ag7
(g11
S'\x85\x87\x8e.\x0c;\xb5@'
p4064
tp4065
Rp4066
ag7
(g11
S'.\xd5\xcc\x17G=\xb5@'
p4067
tp4068
Rp4069
ag7
(g11
S'g]\xaeB\xd8?\xb5@'
p4070
tp4071
Rp4072
ag7
(g11
S"O'u\x0bu@\xb5@"
p4073
tp4074
Rp4075
ag7
(g11
S'+W\xbb\xa2\x0eB\xb5@'
p4076
tp4077
Rp4078
ag7
(g11
S'\xdf\x04\xe8\x18\x88C\xb5@'
p4079
tp4080
Rp4081
ag7
(g11
S'Y\xa3\nW\x00G\xb5@'
p4082
tp4083
Rp4084
ag7
(g11
S'\x8b\x8b\xb2\x96eI\xb5@'
p4085
tp4086
Rp4087
ag7
(g11
S'l\x88\xb8\xd0\xa5K\xb5@'
p4088
tp4089
Rp4090
ag7
(g11
S'\x85g2\xfc!L\xb5@'
p4091
tp4092
Rp4093
ag7
(g11
S'\xd4\x15\xd3f.N\xb5@'
p4094
tp4095
Rp4096
ag7
(g11
S'\xc8\xd32\x00dQ\xb5@'
p4097
tp4098
Rp4099
ag7
(g11
S'-\xca\xf5\x9f\xa7Q\xb5@'
p4100
tp4101
Rp4102
ag7
(g11
S'>\xd4p\xc6~S\xb5@'
p4103
tp4104
Rp4105
ag7
(g11
S'\xc9\x18\xc9\xe9\x15X\xb5@'
p4106
tp4107
Rp4108
ag7
(g11
S'\xba\x10\xb6\xa5\x81Y\xb5@'
p4109
tp4110
Rp4111
ag7
(g11
S'\x07\x16.b\x07[\xb5@'
p4112
tp4113
Rp4114
ag7
(g11
S'\x15\x7f\xa1S\x00]\xb5@'
p4115
tp4116
Rp4117
ag7
(g11
S'\xfb4$\xa1\x93^\xb5@'
p4118
tp4119
Rp4120
ag7
(g11
S'\x0c\xd1\xba\x1bS_\xb5@'
p4121
tp4122
Rp4123
ag7
(g11
S'[\xb7\xee\xedPa\xb5@'
p4124
tp4125
Rp4126
ag7
(g11
S'\xfa\r"\x80oe\xb5@'
p4127
tp4128
Rp4129
ag7
(g11
S'B;\xc3P\x9bf\xb5@'
p4130
tp4131
Rp4132
ag7
(g11
S'3\xe1.\xeb\xf9f\xb5@'
p4133
tp4134
Rp4135
ag7
(g11
S'%\xde\x9f\r\xa9h\xb5@'
p4136
tp4137
Rp4138
ag7
(g11
S'\x12\x0f\x07@\xddi\xb5@'
p4139
tp4140
Rp4141
ag7
(g11
S'\xae\xae\xe3+ll\xb5@'
p4142
tp4143
Rp4144
ag7
(g11
S'8\x94U\x13\xe5m\xb5@'
p4145
tp4146
Rp4147
ag7
(g11
S'!\xe3|X\xae&\xb4@'
p4148
tp4149
Rp4150
ag7
(g11
S'\xdc\xc1\xe1z\x8d(\xb4@'
p4151
tp4152
Rp4153
ag7
(g11
S'+\xae\xe0df)\xb4@'
p4154
tp4155
Rp4156
ag7
(g11
S'\x0e6B^\x13*\xb4@'
p4157
tp4158
Rp4159
ag7
(g11
S'\x86e\xe1\xbe:+\xb4@'
p4160
tp4161
Rp4162
ag7
(g11
S'\xb7\xde\xc3\xf3\x93-\xb4@'
p4163
tp4164
Rp4165
ag7
(g11
S'\xdf\xfbq\xc2z5\xb4@'
p4166
tp4167
Rp4168
ag7
(g11
S'\xdf\xd9\xc0\xc5&7\xb4@'
p4169
tp4170
Rp4171
ag7
(g11
S'\xec(\xf7/\xd28\xb4@'
p4172
tp4173
Rp4174
ag7
(g11
S'T\xaf\xdboT9\xb4@'
p4175
tp4176
Rp4177
ag7
(g11
S'q\xe0.;Q>\xb4@'
p4178
tp4179
Rp4180
ag7
(g11
S'\xf6\xbb\x05$\xcf?\xb4@'
p4181
tp4182
Rp4183
ag7
(g11
S'\xf3\x81.\x9fR@\xb4@'
p4184
tp4185
Rp4186
ag7
(g11
S'\xe4\xbf+\xefCC\xb4@'
p4187
tp4188
Rp4189
ag7
(g11
S'\xc9#\x1d{\xe2C\xb4@'
p4190
tp4191
Rp4192
ag7
(g11
S'@\xc3\xcbZ\xb6F\xb4@'
p4193
tp4194
Rp4195
ag7
(g11
S'\xf5;@\x9cWJ\xb4@'
p4196
tp4197
Rp4198
ag7
(g11
S'\xc8 /L\xcaK\xb4@'
p4199
tp4200
Rp4201
ag7
(g11
S'\xd2\x9d\xc7\x7f2O\xb4@'
p4202
tp4203
Rp4204
ag7
(g11
S'\xfa\x12\xb0\xc2\tU\xb4@'
p4205
tp4206
Rp4207
ag7
(g11
S'\xef\x81\xd4 \x1cY\xb4@'
p4208
tp4209
Rp4210
ag7
(g11
S'\xdf\x9b\x07\t\x8cY\xb4@'
p4211
tp4212
Rp4213
ag7
(g11
S'8\xfe:\x97+[\xb4@'
p4214
tp4215
Rp4216
ag7
(g11
S'\x10Fy~,]\xb4@'
p4217
tp4218
Rp4219
ag7
(g11
S'g\xaf\x8b\xf4\xa0^\xb4@'
p4220
tp4221
Rp4222
ag7
(g11
S'\xef\x81\xd4 \x1cY\xb4@'
p4223
tp4224
Rp4225
ag7
(g11
S'\xdf\x9b\x07\t\x8cY\xb4@'
p4226
tp4227
Rp4228
ag7
(g11
S'8\xfe:\x97+[\xb4@'
p4229
tp4230
Rp4231
ag7
(g11
S'\x10Fy~,]\xb4@'
p4232
tp4233
Rp4234
ag7
(g11
S'g\xaf\x8b\xf4\xa0^\xb4@'
p4235
tp4236
Rp4237
ag7
(g11
S'\xf07\xafm\xb5`\xb4@'
p4238
tp4239
Rp4240
ag7
(g11
S'\xd8>{\x9c\x0fc\xb4@'
p4241
tp4242
Rp4243
ag7
(g11
S'\xde[\x04H\xcfd\xb4@'
p4244
tp4245
Rp4246
ag7
(g11
S'd:\xc7m;e\xb4@'
p4247
tp4248
Rp4249
ag7
(g11
S'Q\xdeo+\x11l\xb4@'
p4250
tp4251
Rp4252
ag7
(g11
S'\xc7\x1c\t\xd8yo\xb4@'
p4253
tp4254
Rp4255
ag7
(g11
S'\x84\xa5m\xda\xb0v\xb4@'
p4256
tp4257
Rp4258
ag7
(g11
S'S(\r\x07qw\xb4@'
p4259
tp4260
Rp4261
ag7
(g11
S'\x0fY[\xa2\x15x\xb4@'
p4262
tp4263
Rp4264
ag7
(g11
S'\t\xa6\xff\xd5\x93\x7f\xb4@'
p4265
tp4266
Rp4267
ag7
(g11
S'\xfe\xa5\xa9\xc0p\x81\xb4@'
p4268
tp4269
Rp4270
ag7
(g11
S'2\xa4E%\xbc\x84\xb4@'
p4271
tp4272
Rp4273
ag7
(g11
S'\x8d\xc9*\x11_\x86\xb4@'
p4274
tp4275
Rp4276
ag7
(g11
S'\xab\t\x9bAU\x8a\xb4@'
p4277
tp4278
Rp4279
ag7
(g11
S'6\xd5\nK\r\x8c\xb4@'
p4280
tp4281
Rp4282
ag7
(g11
S'\xf6\xfcg\xb3F\x8d\xb4@'
p4283
tp4284
Rp4285
ag7
(g11
S'z\x14\xbcF\xb1\x90\xb4@'
p4286
tp4287
Rp4288
ag7
(g11
S'\xf2UYM\xad\x92\xb4@'
p4289
tp4290
Rp4291
ag7
(g11
S'\x10_\xc2\xf4\x05\x93\xb4@'
p4292
tp4293
Rp4294
ag7
(g11
S'D2pC(\x94\xb4@'
p4295
tp4296
Rp4297
ag7
(g11
S'\xeb\x1c\x04\x87\x9f\x95\xb4@'
p4298
tp4299
Rp4300
ag7
(g11
S'U\xbe\x02\xed\xdb\x98\xb4@'
p4301
tp4302
Rp4303
ag7
(g11
S',t\xaa\xec\x04\x9a\xb4@'
p4304
tp4305
Rp4306
ag7
(g11
S'\x85\xdd\x08\xcf\x02\x9d\xb4@'
p4307
tp4308
Rp4309
ag7
(g11
S'\xd9\xbeO\xe4`\x9d\xb4@'
p4310
tp4311
Rp4312
ag7
(g11
S'\xb7\xd4!#\xf2\xa0\xb4@'
p4313
tp4314
Rp4315
ag7
(g11
S'\xf5\x95\xcd\x83x\xa1\xb4@'
p4316
tp4317
Rp4318
ag7
(g11
S'\xbb\xc0\xabYT\xa5\xb4@'
p4319
tp4320
Rp4321
ag7
(g11
S'\x9aK\x9d\x89\xb1\xa6\xb4@'
p4322
tp4323
Rp4324
ag7
(g11
S';\xb4\xbeX\xb6\xab\xb4@'
p4325
tp4326
Rp4327
ag7
(g11
S'\x01\xe7\xea\xd6\xa2\xad\xb4@'
p4328
tp4329
Rp4330
ag7
(g11
S',3\x8ev.\xae\xb4@'
p4331
tp4332
Rp4333
ag7
(g11
S'\xc9\xb5\x08\xd31\xb0\xb4@'
p4334
tp4335
Rp4336
ag7
(g11
S'\xb2+\xa5\xe8\xa4\xb1\xb4@'
p4337
tp4338
Rp4339
ag7
(g11
S'}\x97\xabG,\xb2\xb4@'
p4340
tp4341
Rp4342
ag7
(g11
S'\xa0Q\xbc\xads\xb4\xb4@'
p4343
tp4344
Rp4345
ag7
(g11
S'\xd6\xf1\xba(l\xb9\xb4@'
p4346
tp4347
Rp4348
ag7
(g11
S'U\x18\xcc V\xbb\xb4@'
p4349
tp4350
Rp4351
ag7
(g11
S"6mA'\xea\xbf\xb4@"
p4352
tp4353
Rp4354
ag7
(g11
S'TS@\xd2|\xc0\xb4@'
p4355
tp4356
Rp4357
ag7
(g11
S'\xd5*hF\xde\xc0\xb4@'
p4358
tp4359
Rp4360
ag7
(g11
S'T\xa6\x98c\x14\xc3\xb4@'
p4361
tp4362
Rp4363
ag7
(g11
S'J\xe1M\xbfJ\xc5\xb4@'
p4364
tp4365
Rp4366
ag7
(g11
S'\xde\x14\xa2\x14\xab\xc8\xb4@'
p4367
tp4368
Rp4369
ag7
(g11
S'k\x9f\xcbT\xf6\xcc\xb4@'
p4370
tp4371
Rp4372
ag7
(g11
S'\x12oHdK\xcd\xb4@'
p4373
tp4374
Rp4375
ag7
(g11
S'\x82\xff\xd0\r\r\xce\xb4@'
p4376
tp4377
Rp4378
ag7
(g11
S'N\xfb\xc9$\xce\xce\xb4@'
p4379
tp4380
Rp4381
ag7
(g11
S'!\xa7\x1bk\x98\xd1\xb4@'
p4382
tp4383
Rp4384
ag7
(g11
S'o\x7f\xc8=\xf7\xd1\xb4@'
p4385
tp4386
Rp4387
ag7
(g11
S'q\x95\xbe\x8d\xf2\xd2\xb4@'
p4388
tp4389
Rp4390
ag7
(g11
S'HS\xaecA\xdc\xb4@'
p4391
tp4392
Rp4393
ag7
(g11
S'M\xe6A\x03\xbc\xdf\xb4@'
p4394
tp4395
Rp4396
ag7
(g11
S'\xdc\x8f\x06\rZ\xe0\xb4@'
p4397
tp4398
Rp4399
ag7
(g11
S'\xd7\xaf:6\xd4\xe3\xb4@'
p4400
tp4401
Rp4402
ag7
(g11
S'|\x93\x1c4\x08\xe7\xb4@'
p4403
tp4404
Rp4405
ag7
(g11
S'`\xfc31q\xea\xb4@'
p4406
tp4407
Rp4408
ag7
(g11
S'\x8b\x16\x8by\x7f\xeb\xb4@'
p4409
tp4410
Rp4411
ag7
(g11
S'W\x8f/0\x18\xee\xb4@'
p4412
tp4413
Rp4414
ag7
(g11
S"\xa2W\xcf'\xf6\xee\xb4@"
p4415
tp4416
Rp4417
ag7
(g11
S'\x15\xf7g3\x15\xaf\xb3@'
p4418
tp4419
Rp4420
ag7
(g11
S'\x84?\xd84\xa7\xb4\xb3@'
p4421
tp4422
Rp4423
ag7
(g11
S'\r\x91z6\xe6\xb6\xb3@'
p4424
tp4425
Rp4426
ag7
(g11
S'X\xa9\xaeK\xb0\xb9\xb3@'
p4427
tp4428
Rp4429
ag7
(g11
S'\xe2\xe8\xcfk\x99\xba\xb3@'
p4430
tp4431
Rp4432
ag7
(g11
S'\xb2$\x9dn\xfe\xbd\xb3@'
p4433
tp4434
Rp4435
ag7
(g11
S'F\x1d\xe3\x88C\xc6\xb3@'
p4436
tp4437
Rp4438
ag7
(g11
S'\xbd\x1b6\xac\x87\xc8\xb3@'
p4439
tp4440
Rp4441
ag7
(g11
S'\xe2\xb6\xac\x1d\xe8\xc8\xb3@'
p4442
tp4443
Rp4444
ag7
(g11
S'\x12\x7fx9\xfa\xc9\xb3@'
p4445
tp4446
Rp4447
ag7
(g11
S'\xfd\x0b\xb5)\xe0\xcb\xb3@'
p4448
tp4449
Rp4450
ag7
(g11
S'\xaeVI\xf7\xf6\xd0\xb3@'
p4451
tp4452
Rp4453
ag7
(g11
S'"\x9e.IT\xd9\xb3@'
p4454
tp4455
Rp4456
ag7
(g11
S'\x14\xf4M\xff\xe7\xdc\xb3@'
p4457
tp4458
Rp4459
ag7
(g11
S'bh2\x1bt\xe2\xb3@'
p4460
tp4461
Rp4462
ag7
(g11
S'05=\x14\xed\xe6\xb3@'
p4463
tp4464
Rp4465
ag7
(g11
S':)P\xf5R\xe8\xb3@'
p4466
tp4467
Rp4468
ag7
(g11
S'\x93\x8a\x0c\x89\xeb\xe9\xb3@'
p4469
tp4470
Rp4471
ag7
(g11
S'0!\x96\xf0`\xec\xb3@'
p4472
tp4473
Rp4474
ag7
(g11
S'\x18\xdf\t\x07\n\xed\xb3@'
p4475
tp4476
Rp4477
ag7
(g11
S'/\xa09\xfb,\xf7\xb3@'
p4478
tp4479
Rp4480
ag7
(g11
S'\\? 9\x16\xfb\xb3@'
p4481
tp4482
Rp4483
ag7
(g11
S'\xc0\xca\xf4\x81\x16\xfe\xb3@'
p4484
tp4485
Rp4486
ag7
(g11
S'X\x93Nxh\x02\xb4@'
p4487
tp4488
Rp4489
ag7
(g11
S'\x9d\xd8\x9b:\xaf\x05\xb4@'
p4490
tp4491
Rp4492
ag7
(g11
S']\xdd\x15\xcaW\x08\xb4@'
p4493
tp4494
Rp4495
ag7
(g11
S'\xdc\xecD\xa2\xe6\n\xb4@'
p4496
tp4497
Rp4498
ag7
(g11
S'\xf4\x93yo\xb0\x0e\xb4@'
p4499
tp4500
Rp4501
ag7
(g11
S'\xb5\xfe\xbc\xa6X\x11\xb4@'
p4502
tp4503
Rp4504
ag7
(g11
S'Z\x05\xd6\xcd\xdf\x15\xb4@'
p4505
tp4506
Rp4507
ag7
(g11
S'\xb3\xe6=\xbc\xe1\x17\xb4@'
p4508
tp4509
Rp4510
ag7
(g11
S'\xf7N\x88\xbbi\x19\xb4@'
p4511
tp4512
Rp4513
ag7
(g11
S'\x95\x9dA\'."\xb4@'
p4514
tp4515
Rp4516
ag7
(g11
S'\xfb\xa2\x04|\xa3&\xb4@'
p4517
tp4518
Rp4519
ag7
(g11
S'\xdf\xcbAX\x92(\xb4@'
p4520
tp4521
Rp4522
ag7
(g11
S'\xe9\xfb?\xe6~)\xb4@'
p4523
tp4524
Rp4525
ag7
(g11
S'\xaf\x04Fek*\xb4@'
p4526
tp4527
Rp4528
ag7
(g11
S':c\xe0\xc1p+\xb4@'
p4529
tp4530
Rp4531
ag7
(g11
S'\xac>\xe5\x84\xc40\xb4@'
p4532
tp4533
Rp4534
ag7
(g11
S'\xe3P]q\x805\xb4@'
p4535
tp4536
Rp4537
ag7
(g11
S'\xc4\x1e\xe2U$7\xb4@'
p4538
tp4539
Rp4540
ag7
(g11
S'o\x96I7&8\xb4@'
p4541
tp4542
Rp4543
ag7
(g11
S'\x9e\x86\xf6\x96\xcb8\xb4@'
p4544
tp4545
Rp4546
ag7
(g11
S'H\xc6D\xb7W>\xb4@'
p4547
tp4548
Rp4549
ag7
(g11
S'\xfc\xbc\xb3\x19\xe7?\xb4@'
p4550
tp4551
Rp4552
ag7
(g11
S'T_#\x93WB\xb4@'
p4553
tp4554
Rp4555
ag7
(g11
S'R:\xfeU\xe2C\xb4@'
p4556
tp4557
Rp4558
ag7
(g11
S'\xbdy\x89\xa4\xb9F\xb4@'
p4559
tp4560
Rp4561
ag7
(g11
S'\xd2\ta2\xc2I\xb4@'
p4562
tp4563
Rp4564
ag7
(g11
S'\xc7\x1du@dJ\xb4@'
p4565
tp4566
Rp4567
ag7
(g11
S'\xbft\x87\xa2\xcbK\xb4@'
p4568
tp4569
Rp4570
ag7
(g11
S'[[\xdf\xc3\xb1N\xb4@'
p4571
tp4572
Rp4573
ag7
(g11
S'\x03\xbeh\x17&O\xb4@'
p4574
tp4575
Rp4576
ag7
(g11
S'3BCr\x0cU\xb4@'
p4577
tp4578
Rp4579
ag7
(g11
S'-\xd2\x10\x03\x16Y\xb4@'
p4580
tp4581
Rp4582
ag7
(g11
S'\x0b\xb0\x0bn\xa8Y\xb4@'
p4583
tp4584
Rp4585
ag7
(g11
S'|\xeb\xe0\\H[\xb4@'
p4586
tp4587
Rp4588
ag7
(g11
S'\x89\x89R\xd2D]\xb4@'
p4589
tp4590
Rp4591
ag7
(g11
S'w\x81.\x07\xad^\xb4@'
p4592
tp4593
Rp4594
ag7
(g11
S'\xc5\xe7L\xd5\x80`\xb4@'
p4595
tp4596
Rp4597
ag7
(g11
S'$\xa5\x00u\xb4`\xb4@'
p4598
tp4599
Rp4600
ag7
(g11
S'\xa1;=\xbb\x0bc\xb4@'
p4601
tp4602
Rp4603
ag7
(g11
S'\xc1\xea;\xfa\xd3d\xb4@'
p4604
tp4605
Rp4606
ag7
(g11
S'<2\x10V6e\xb4@'
p4607
tp4608
Rp4609
ag7
(g11
S'mr\xc7\x97\xa6e\xb4@'
p4610
tp4611
Rp4612
ag7
(g11
S'\xa2\\Z4\x1cl\xb4@'
p4613
tp4614
Rp4615
ag7
(g11
S'\x83,k\xf1Go\xb4@'
p4616
tp4617
Rp4618
ag7
(g11
S'\xa6\xa9{\xf8\x1aq\xb4@'
p4619
tp4620
Rp4621
ag7
(g11
S'\xe5\xcd\xd2\xec\xae?\xb3@'
p4622
tp4623
Rp4624
ag7
(g11
S'R\x12\\\xd3(E\xb3@'
p4625
tp4626
Rp4627
ag7
(g11
S'\xba\xda\x90n\xa7H\xb3@'
p4628
tp4629
Rp4630
ag7
(g11
S'\xa1+\x00\xd0\xaaI\xb3@'
p4631
tp4632
Rp4633
ag7
(g11
S'\xb0D\x9a\x97\x85K\xb3@'
p4634
tp4635
Rp4636
ag7
(g11
S'\xe1\x07JMOQ\xb3@'
p4637
tp4638
Rp4639
ag7
(g11
S'm\xac\xb9BxR\xb3@'
p4640
tp4641
Rp4642
ag7
(g11
S'\xf8\x01:\xce:U\xb3@'
p4643
tp4644
Rp4645
ag7
(g11
S'\xcf\xb1\xeb6wV\xb3@'
p4646
tp4647
Rp4648
ag7
(g11
S'\xa4%\x8f\x92\x10e\xb3@'
p4649
tp4650
Rp4651
ag7
(g11
S'\x8b\xa3\x03\x92\x98e\xb3@'
p4652
tp4653
Rp4654
ag7
(g11
S'\x85%\xd9\xc7\x80\\\xb3@'
p4655
tp4656
Rp4657
ag7
(g11
S'jRL\xdc\xf7i\xb3@'
p4658
tp4659
Rp4660
ag7
(g11
S'\x17\xd0O\xf0\xf3k\xb3@'
p4661
tp4662
Rp4663
ag7
(g11
S'\xab\xe1\xa4\xe1Pm\xb3@'
p4664
tp4665
Rp4666
ag7
(g11
S'g\xcf\x84)\xf1s\xb3@'
p4667
tp4668
Rp4669
ag7
(g11
S'M\xd6-\x7fSv\xb3@'
p4670
tp4671
Rp4672
ag7
(g11
S'\xbd*\xecHHy\xb3@'
p4673
tp4674
Rp4675
ag7
(g11
S'\x08\xc2\x08&\x00{\xb3@'
p4676
tp4677
Rp4678
ag7
(g11
S'\xc5\xfa\x8a\xbek{\xb3@'
p4679
tp4680
Rp4681
ag7
(g11
S'\xc0=\x13M }\xb3@'
p4682
tp4683
Rp4684
ag7
(g11
S'\x8b\xf5x\xec\xce}\xb3@'
p4685
tp4686
Rp4687
ag7
(g11
S'\xe0\xea\xd7zw\x80\xb3@'
p4688
tp4689
Rp4690
ag7
(g11
S'\x10s\xc8\xd0\x1b\x8a\xb3@'
p4691
tp4692
Rp4693
ag7
(g11
S';,\xa9\x0eu\x8b\xb3@'
p4694
tp4695
Rp4696
ag7
(g11
S'\xe5\xd2\nRQ\x91\xb3@'
p4697
tp4698
Rp4699
ag7
(g11
S'\x8b_\xaa\xa3g\x99\xb3@'
p4700
tp4701
Rp4702
ag7
(g11
S'qU\x18\t\xbc\x9b\xb3@'
p4703
tp4704
Rp4705
ag7
(g11
S'\xb44+C\xd7\x9d\xb3@'
p4706
tp4707
Rp4708
ag7
(g11
S'\x15\x9dTa\x95\xa4\xb3@'
p4709
tp4710
Rp4711
ag7
(g11
S'\xb1ai\x99\xd4\xa4\xb3@'
p4712
tp4713
Rp4714
ag7
(g11
S'PQ\xdf\xc3\xc7\xa5\xb3@'
p4715
tp4716
Rp4717
ag7
(g11
S'\xf7Ko<\xe8\xa7\xb3@'
p4718
tp4719
Rp4720
ag7
(g11
S'\xf3C\xbb\xb9#\xaf\xb3@'
p4721
tp4722
Rp4723
ag7
(g11
S'}sB\xf2\xba\xb4\xb3@'
p4724
tp4725
Rp4726
ag7
(g11
S"\x95%'\xe0\x1c\xb5\xb3@"
p4727
tp4728
Rp4729
ag7
(g11
S'H\xc8={\xf0\xb6\xb3@'
p4730
tp4731
Rp4732
ag7
(g11
S'5\x85C\xfc\xb6\xb9\xb3@'
p4733
tp4734
Rp4735
ag7
(g11
S'=\n\xa7D\xb1\xba\xb3@'
p4736
tp4737
Rp4738
ag7
(g11
S'\xab\x96z\xa3\xb7\xbb\xb3@'
p4739
tp4740
Rp4741
ag7
(g11
S'\xd9\xb8\x12\x15\x0b\xbe\xb3@'
p4742
tp4743
Rp4744
ag7
(g11
S'\x07\xe5m\xc6\xb1\xc3\xb3@'
p4745
tp4746
Rp4747
ag7
(g11
S'^5\xeb\xcfN\xc6\xb3@'
p4748
tp4749
Rp4750
ag7
(g11
S'\x1b1\xc4L\x88\xc8\xb3@'
p4751
tp4752
Rp4753
ag7
(g11
S'=$\x0c\xab\xe4\xc8\xb3@'
p4754
tp4755
Rp4756
ag7
(g11
S'>\xf9\t\xd9\xff\xc9\xb3@'
p4757
tp4758
Rp4759
ag7
(g11
S'\xa3\xf2d(\x02\xcc\xb3@'
p4760
tp4761
Rp4762
ag7
(g11
S'U\x95\xcbn\xef\xd0\xb3@'
p4763
tp4764
Rp4765
ag7
(g11
S'\x05\xf6\xd5/\xee\xd5\xb3@'
p4766
tp4767
Rp4768
ag7
(g11
S'EC\r\xa4S\xd9\xb3@'
p4769
tp4770
Rp4771
ag7
(g11
S'\x159.\x83\xe3\xdc\xb3@'
p4772
tp4773
Rp4774
ag7
(g11
S'\x17%\xbb(\x00\xdf\xb3@'
p4775
tp4776
Rp4777
ag7
(g11
S'\xb3\x1f\x8b\xafg\xe2\xb3@'
p4778
tp4779
Rp4780
ag7
(g11
S'\xb7\xd46\xa9\xd5\xe5\xb3@'
p4781
tp4782
Rp4783
ag7
(g11
S'\xda\xc8\xdd\xd3\xee\xe6\xb3@'
p4784
tp4785
Rp4786
ag7
(g11
S'\xfe\x9bL\xb6\xb6\xe7\xb3@'
p4787
tp4788
Rp4789
ag7
(g11
S'\xbaY\x9b\xbd[\xe8\xb3@'
p4790
tp4791
Rp4792
ag7
(g11
S'\xc4p\xeb\xcd\xf1\xe9\xb3@'
p4793
tp4794
Rp4795
ag7
(g11
S'\xe3\xf8Y h\xec\xb3@'
p4796
tp4797
Rp4798
ag7
(g11
S'\xd3 \xda\xa2\x0b\xed\xb3@'
p4799
tp4800
Rp4801
ag7
(g11
S'5\x1d\x1e\xf1\x0b\xfb\xb3@'
p4802
tp4803
Rp4804
ag7
(g11
S'\xc8\xe3b@\xba\xd4\xb2@'
p4805
tp4806
Rp4807
ag7
(g11
S'\r\xef\xa8\xbak\xd5\xb2@'
p4808
tp4809
Rp4810
ag7
(g11
S'\xab\x019 \xc2\xd6\xb2@'
p4811
tp4812
Rp4813
ag7
(g11
S'#\x84J\x01g\xd7\xb2@'
p4814
tp4815
Rp4816
ag7
(g11
S'%\xa6\xf3\xd5\xc9\xd7\xb2@'
p4817
tp4818
Rp4819
ag7
(g11
S'C\x83\xcc\x95\x87\xda\xb2@'
p4820
tp4821
Rp4822
ag7
(g11
S'F6\x9e\x14\xf6\xde\xb2@'
p4823
tp4824
Rp4825
ag7
(g11
S'\x89\x9f\x7f\xf3\x85\xdf\xb2@'
p4826
tp4827
Rp4828
ag7
(g11
S'\xebt\xc8\x95\x92\xe4\xb2@'
p4829
tp4830
Rp4831
ag7
(g11
S'\xf7d\xe7\x03\xcc\xe8\xb2@'
p4832
tp4833
Rp4834
ag7
(g11
S'\x89\xd1\xad\xa2\xbf\xeb\xb2@'
p4835
tp4836
Rp4837
ag7
(g11
S'\x80\xd5e`\t\xed\xb2@'
p4838
tp4839
Rp4840
ag7
(g11
S'\xed\x99\xcb\x9d\xc9\xef\xb2@'
p4841
tp4842
Rp4843
ag7
(g11
S'\xd8\xc4\x81G?\xf0\xb2@'
p4844
tp4845
Rp4846
ag7
(g11
S'5\xfd\xa9dE\xf2\xb2@'
p4847
tp4848
Rp4849
ag7
(g11
S"\xa1'{\xdb\x10\xfd\xb2@"
p4850
tp4851
Rp4852
ag7
(g11
S'\x86\x82\xdb\xe7\x1e\xff\xb2@'
p4853
tp4854
Rp4855
ag7
(g11
S'\xce\xafG\x7fl\x01\xb3@'
p4856
tp4857
Rp4858
ag7
(g11
S'\x1b\x8c\xf7\xab\xda\x01\xb3@'
p4859
tp4860
Rp4861
ag7
(g11
S'\x8eJP=e\x03\xb3@'
p4862
tp4863
Rp4864
ag7
(g11
S'\xcdV\xf4\x96\xb1\x04\xb3@'
p4865
tp4866
Rp4867
ag7
(g11
S'\xd8\xd5\x1e*\x10\x07\xb3@'
p4868
tp4869
Rp4870
ag7
(g11
S'g\xa0\xb0\x05\xc1\x08\xb3@'
p4871
tp4872
Rp4873
ag7
(g11
S'UN\xc6#:\n\xb3@'
p4874
tp4875
Rp4876
ag7
(g11
S'\x9dP7-\xbf\x0e\xb3@'
p4877
tp4878
Rp4879
ag7
(g11
S']ks\xa5\xd9\x0f\xb3@'
p4880
tp4881
Rp4882
ag7
(g11
S'\x00O-\x85O\x19\xb3@'
p4883
tp4884
Rp4885
ag7
(g11
S'\x13\xc4\xe37\x85\x1c\xb3@'
p4886
tp4887
Rp4888
ag7
(g11
S'5\xdd\xa0\xa0+\x1f\xb3@'
p4889
tp4890
Rp4891
ag7
(g11
S'7\xd5\xb5_\xdd%\xb3@'
p4892
tp4893
Rp4894
ag7
(g11
S'\xddu\x17\x1a\xaa(\xb3@'
p4895
tp4896
Rp4897
ag7
(g11
S'\xc9E\xa1\xe4\xf7-\xb3@'
p4898
tp4899
Rp4900
ag7
(g11
S'\xf3\xf3a\xeb\xa6.\xb3@'
p4901
tp4902
Rp4903
ag7
(g11
S'\x86Q\xe6RC/\xb3@'
p4904
tp4905
Rp4906
ag7
(g11
S'\xd1qD\xf1f0\xb3@'
p4907
tp4908
Rp4909
ag7
(g11
S'\xcb\x1a\x0f\x00\xc07\xb3@'
p4910
tp4911
Rp4912
ag7
(g11
S'U\xfa\x11>r9\xb3@'
p4913
tp4914
Rp4915
ag7
(g11
S'\x18\xbe\xfaZ\xb3?\xb3@'
p4916
tp4917
Rp4918
ag7
(g11
S'5\x04fFCE\xb3@'
p4919
tp4920
Rp4921
ag7
(g11
S'\x9d\xdc\xe4\xb8\xaeH\xb3@'
p4922
tp4923
Rp4924
ag7
(g11
S'\xebH\xc7G\x9fI\xb3@'
p4925
tp4926
Rp4927
ag7
(g11
S'u`u*\x99K\xb3@'
p4928
tp4929
Rp4930
ag7
(g11
S'\xb9\xb4\xad\xcboQ\xb3@'
p4931
tp4932
Rp4933
ag7
(g11
S'\xadjEu\x90R\xb3@'
p4934
tp4935
Rp4936
ag7
(g11
S'\xfby\x9c\xb6MU\xb3@'
p4937
tp4938
Rp4939
ag7
(g11
S'\xcae^\xac~V\xb3@'
p4940
tp4941
Rp4942
ag7
(g11
S'\xe1:v\x80\xeeZ\xb3@'
p4943
tp4944
Rp4945
ag7
(g11
S'\x11\xcb\\\xd2\x82\\\xb3@'
p4946
tp4947
Rp4948
ag7
(g11
S'f\xaa2spe\xb3@'
p4949
tp4950
Rp4951
ag7
(g11
S'\xea\xe8\xfa\xf6\x93e\xb3@'
p4952
tp4953
Rp4954
ag7
(g11
S'\xff\xd4\xa0_\xa8h\xb3@'
p4955
tp4956
Rp4957
ag7
(g11
S'\x8e\xff\xeb\xb9\xe0k\xb3@'
p4958
tp4959
Rp4960
ag7
(g11
S'\x00\x01*\x81\xd5o\xb3@'
p4961
tp4962
Rp4963
ag7
(g11
S'O\x08\xca`\x1dt\xb3@'
p4964
tp4965
Rp4966
ag7
(g11
S'\x89\x8e\x1f\xafTv\xb3@'
p4967
tp4968
Rp4969
ag7
(g11
S'\xf6\xd0_\x8fQy\xb3@'
p4970
tp4971
Rp4972
ag7
(g11
S'T$"\xfd\x0b{\xb3@'
p4973
tp4974
Rp4975
ag7
(g11
S'J\xd2s\x0cm{\xb3@'
p4976
tp4977
Rp4978
ag7
(g11
S'\x81\xa6cK\x1e}\xb3@'
p4979
tp4980
Rp4981
ag7
(g11
S'\xcd\xf3Pkv\x80\xb3@'
p4982
tp4983
Rp4984
ag7
(g11
S'f\x93[e\xa2\x81\xb3@'
p4985
tp4986
Rp4987
ag7
(g11
S'J)}\xed\xd1\x87\xb3@'
p4988
tp4989
Rp4990
ag7
(g11
S'\x00\x1d[\xf5\x13\x8a\xb3@'
p4991
tp4992
Rp4993
ag7
(g11
S'\x86Hv*q\x8b\xb3@'
p4994
tp4995
Rp4996
ag7
(g11
S'\x1fbF)mq\xb2@'
p4997
tp4998
Rp4999
ag7
(g11
S'\xf3\xf9\xc0\x87zs\xb2@'
p5000
tp5001
Rp5002
ag7
(g11
S'\xc8 I\x03\xdcv\xb2@'
p5003
tp5004
Rp5005
ag7
(g11
S'\xe4\xdc\x0fv\xfcx\xb2@'
p5006
tp5007
Rp5008
ag7
(g11
S'.\x84T`&|\xb2@'
p5009
tp5010
Rp5011
ag7
(g11
S"\x1a\x1e-'\xe6\x7f\xb2@"
p5012
tp5013
Rp5014
ag7
(g11
S'\xbe\x82K\xb9\x93\x83\xb2@'
p5015
tp5016
Rp5017
ag7
(g11
S'\x07\x7fz\x945\x84\xb2@'
p5018
tp5019
Rp5020
ag7
(g11
S'\xe8\x85t\xf1\xd9\x84\xb2@'
p5021
tp5022
Rp5023
ag7
(g11
S'\xc6-b\xc5(\x89\xb2@'
p5024
tp5025
Rp5026
ag7
(g11
S'\x08\xfe\xd0\x98\x9b\x8a\xb2@'
p5027
tp5028
Rp5029
ag7
(g11
S'F\xa2\x1d\x86\x14\x8d\xb2@'
p5030
tp5031
Rp5032
ag7
(g11
S'\xfay\xec\x8fT\x90\xb2@'
p5033
tp5034
Rp5035
ag7
(g11
S'Ih+\xf2\x1b\x95\xb2@'
p5036
tp5037
Rp5038
ag7
(g11
S'\xc0\x05\xba\x02\x01\x99\xb2@'
p5039
tp5040
Rp5041
ag7
(g11
S'\x9a\x15c\x83\xda\x9c\xb2@'
p5042
tp5043
Rp5044
ag7
(g11
S'\xb9:\xb5o\x7f\x9e\xb2@'
p5045
tp5046
Rp5047
ag7
(g11
S'\xbcI\xb7\x19~\xa0\xb2@'
p5048
tp5049
Rp5050
ag7
(g11
S'\x01\xfb~n"\xa5\xb2@'
p5051
tp5052
Rp5053
ag7
(g11
S'\x88\x86]n#\xa6\xb2@'
p5054
tp5055
Rp5056
ag7
(g11
S'\xfb\xbdI\x08\xa8\xa7\xb2@'
p5057
tp5058
Rp5059
ag7
(g11
S'2\x8d\x85\xd6i\xaa\xb2@'
p5060
tp5061
Rp5062
ag7
(g11
S'\x94\x97MP\x9d\xae\xb2@'
p5063
tp5064
Rp5065
ag7
(g11
S'\x18\x1a\x88\x0e\xc6\xaf\xb2@'
p5066
tp5067
Rp5068
ag7
(g11
S'K\xde\x0c\x00\xdb\xb1\xb2@'
p5069
tp5070
Rp5071
ag7
(g11
S'\x0c\xb7\xb5\xb1\x02\xb3\xb2@'
p5072
tp5073
Rp5074
ag7
(g11
S'/O\xdb\xba*\xb5\xb2@'
p5075
tp5076
Rp5077
ag7
(g11
S'\x06\xe7\x06\x9b\xcd\xb7\xb2@'
p5078
tp5079
Rp5080
ag7
(g11
S'E\x83-\x99\x19\xb9\xb2@'
p5081
tp5082
Rp5083
ag7
(g11
S'i9\\\xda\xce\xbb\xb2@'
p5084
tp5085
Rp5086
ag7
(g11
S'\xc5\x8c\x1e\xe9\xd6\xbd\xb2@'
p5087
tp5088
Rp5089
ag7
(g11
S'\x94[\xf9\xd3\x17\xc0\xb2@'
p5090
tp5091
Rp5092
ag7
(g11
S'\xd2>\x97\x81k\xc6\xb2@'
p5093
tp5094
Rp5095
ag7
(g11
S'b\xd9{81\xc8\xb2@'
p5096
tp5097
Rp5098
ag7
(g11
S'\xda\xf6\xdf\xcbc\xc9\xb2@'
p5099
tp5100
Rp5101
ag7
(g11
S'\xfe\n\xf2a5\xcc\xb2@'
p5102
tp5103
Rp5104
ag7
(g11
S'\x9c\xc4\x19~\xd8\xcd\xb2@'
p5105
tp5106
Rp5107
ag7
(g11
S'\x96\\\\\x83|\xd2\xb2@'
p5108
tp5109
Rp5110
ag7
(g11
S'\x826\x9d\xce\x13\xd3\xb2@'
p5111
tp5112
Rp5113
ag7
(g11
S'\xeb\x06\xce\xfa\xa8\xd4\xb2@'
p5114
tp5115
Rp5116
ag7
(g11
S'\xe7\xaf%X~\xd5\xb2@'
p5117
tp5118
Rp5119
ag7
(g11
S'\xb2+uK\xb0\xd6\xb2@'
p5120
tp5121
Rp5122
ag7
(g11
S'\x89\xfe[\x80t\xd7\xb2@'
p5123
tp5124
Rp5125
ag7
(g11
S'\xb8\xb2e\x1e\xe3\xd7\xb2@'
p5126
tp5127
Rp5128
ag7
(g11
S'\xbe\xd8\xfe\xf2\x94\xda\xb2@'
p5129
tp5130
Rp5131
ag7
(g11
S'\xecr\x18\x86\xa9\xdd\xb2@'
p5132
tp5133
Rp5134
ag7
(g11
S'\xb0\xcb8\xcb\x02\xdf\xb2@'
p5135
tp5136
Rp5137
ag7
(g11
S'n\xe7\x7fx\x89\xdf\xb2@'
p5138
tp5139
Rp5140
ag7
(g11
S'5\xa8^\xc7\xb8\xe0\xb2@'
p5141
tp5142
Rp5143
ag7
(g11
S'#\xf4?\xe8\xd3\xe8\xb2@'
p5144
tp5145
Rp5146
ag7
(g11
S'D\xe4O\x8e\xb2\xeb\xb2@'
p5147
tp5148
Rp5149
ag7
(g11
S'`&\xbd\x11\x0c\xed\xb2@'
p5150
tp5151
Rp5152
ag7
(g11
S'\xee\x0e\xcc\xb9\xcb\xef\xb2@'
p5153
tp5154
Rp5155
ag7
(g11
S'\xc3\xb6\x9bQ]\xf0\xb2@'
p5156
tp5157
Rp5158
ag7
(g11
S's\x8c\x0c{\xab\xf1\xb2@'
p5159
tp5160
Rp5161
ag7
(g11
S'h\xf1n\xb6G\xf2\xb2@'
p5162
tp5163
Rp5164
ag7
(g11
S'\xc6\xacm7\xa4\xf4\xb2@'
p5165
tp5166
Rp5167
ag7
(g11
S'D\x14\x08\xc64\xfa\xb2@'
p5168
tp5169
Rp5170
ag7
(g11
S'c:\xe0\xc9\x18\xfd\xb2@'
p5171
tp5172
Rp5173
ag7
(g11
S'w\x8d\x82@\x85\xfd\xb2@'
p5174
tp5175
Rp5176
ag7
(g11
S'g\xe9\xc1\xe9\xf7\xfe\xb2@'
p5177
tp5178
Rp5179
ag7
(g11
S'\xa2\x8f\xe2\xbbp\x01\xb3@'
p5180
tp5181
Rp5182
ag7
(g11
S'\x17<hH\xce\x01\xb3@'
p5183
tp5184
Rp5185
ag7
(g11
S'\x17e\xe3Fd\x03\xb3@'
p5186
tp5187
Rp5188
ag7
(g11
S'^\x84(G\xba\x04\xb3@'
p5189
tp5190
Rp5191
ag7
(g11
S'\xd3\xfa\xd0\x00\x0e\x07\xb3@'
p5192
tp5193
Rp5194
ag7
(g11
S'+\xb1\x84\xac\xc2\x08\xb3@'
p5195
tp5196
Rp5197
ag7
(g11
S'oL\xa5\x0cB\n\xb3@'
p5198
tp5199
Rp5200
ag7
(g11
S'\xf1\xd3}\xda%\x0c\xb3@'
p5201
tp5202
Rp5203
ag7
(g11
S'\xc8\xf3"\x83\xbb\x0e\xb3@'
p5204
tp5205
Rp5206
ag7
(g11
S'\xfa=/}\xda\x0f\xb3@'
p5207
tp5208
Rp5209
ag7
(g11
S'+\xb8I\x1b\x13\x12\xb3@'
p5210
tp5211
Rp5212
ag7
(g11
S'\x8a\xfaYW6\x16\xb3@'
p5213
tp5214
Rp5215
ag7
(g11
S'ck\x82\xe5\xd3\x17\xb3@'
p5216
tp5217
Rp5218
ag7
(g11
S'\x908\xbeT%\x19\xb3@'
p5219
tp5220
Rp5221
ag7
(g11
S'\x8b\x8e\xd0\xac\x9f\x1c\xb3@'
p5222
tp5223
Rp5224
ag7
(g11
S';\xfb\x1a\xbb\x1c\x1f\xb3@'
p5225
tp5226
Rp5227
ag7
(g11
S'\x95\xd6\x15\x1b\xf9"\xb3@'
p5228
tp5229
Rp5230
ag7
(g11
S'?\xber\xd6W\x14\xb2@'
p5231
tp5232
Rp5233
ag7
(g11
S's\xee"\xcf\xaf\x19\xb2@'
p5234
tp5235
Rp5236
ag7
(g11
S'\xb8\xeb\x84~A\x1d\xb2@'
p5237
tp5238
Rp5239
ag7
(g11
S'\x12\x0cr\xe6\x94\x1e\xb2@'
p5240
tp5241
Rp5242
ag7
(g11
S'\xc3\xa1\xe8\n\x06!\xb2@'
p5243
tp5244
Rp5245
ag7
(g11
S'\x81\x82\x9b\x8bk#\xb2@'
p5246
tp5247
Rp5248
ag7
(g11
S"cslc''\xb2@"
p5249
tp5250
Rp5251
ag7
(g11
S'U\x83\x8b\x04s+\xb2@'
p5252
tp5253
Rp5254
ag7
(g11
S'\xc7\xa8\xfd\xd9\xe21\xb2@'
p5255
tp5256
Rp5257
ag7
(g11
S'\xeb5\xed\xc5]3\xb2@'
p5258
tp5259
Rp5260
ag7
(g11
S'\x83ck\x03\xea6\xb2@'
p5261
tp5262
Rp5263
ag7
(g11
S'\x8fs\xba\x8a\xdf9\xb2@'
p5264
tp5265
Rp5266
ag7
(g11
S'\x9b-Z\x8d\n<\xb2@'
p5267
tp5268
Rp5269
ag7
(g11
S'cD\\r\xdf=\xb2@'
p5270
tp5271
Rp5272
ag7
(g11
S'\x8a5\x80>\xa1A\xb2@'
p5273
tp5274
Rp5275
ag7
(g11
S'\xfc\xdc\xfd\x8e\xc8C\xb2@'
p5276
tp5277
Rp5278
ag7
(g11
S'\xb1\xa9:\x18\x1dF\xb2@'
p5279
tp5280
Rp5281
ag7
(g11
S'\xa82s\xf0%J\xb2@'
p5282
tp5283
Rp5284
ag7
(g11
S'\xbf\xf6f\x92GK\xb2@'
p5285
tp5286
Rp5287
ag7
(g11
S'\n0?Z\x1eN\xb2@'
p5288
tp5289
Rp5290
ag7
(g11
S'\xc4Z\x8a\xdcvR\xb2@'
p5291
tp5292
Rp5293
ag7
(g11
S'bqQo\xf1U\xb2@'
p5294
tp5295
Rp5296
ag7
(g11
S'\xfb\xed]U\xbbV\xb2@'
p5297
tp5298
Rp5299
ag7
(g11
S'\xa5\xa8nw\x16Z\xb2@'
p5300
tp5301
Rp5302
ag7
(g11
S'\xa0&\xb9\x1c\xa1\\\xb2@'
p5303
tp5304
Rp5305
ag7
(g11
S'\xa8\x85\x01\nE^\xb2@'
p5306
tp5307
Rp5308
ag7
(g11
S'\xdd\x8e"Y(`\xb2@'
p5309
tp5310
Rp5311
ag7
(g11
S'\x88\xb0\x05\x82\xb2a\xb2@'
p5312
tp5313
Rp5314
ag7
(g11
S'\x86\xe0\xa5,4d\xb2@'
p5315
tp5316
Rp5317
ag7
(g11
S'\x9b\xd7\xa7\xca\xb3f\xb2@'
p5318
tp5319
Rp5320
ag7
(g11
S'\x89\x83K\xa2Lh\xb2@'
p5321
tp5322
Rp5323
ag7
(g11
S'p\xaa\x88\xe4:m\xb2@'
p5324
tp5325
Rp5326
ag7
(g11
S'1\x144\x97Ep\xb2@'
p5327
tp5328
Rp5329
ag7
(g11
S'Y\x9e\x9e\xe5#q\xb2@'
p5330
tp5331
Rp5332
ag7
(g11
S'\x14\xcc\x93uvq\xb2@'
p5333
tp5334
Rp5335
ag7
(g11
S'\x8bF\xaf.\x01r\xb2@'
p5336
tp5337
Rp5338
ag7
(g11
S'\x94\xe9\xec(\xa0s\xb2@'
p5339
tp5340
Rp5341
ag7
(g11
S'I\x14sT\xdcv\xb2@'
p5342
tp5343
Rp5344
ag7
(g11
S'\xa4\x89d\xb6)|\xb2@'
p5345
tp5346
Rp5347
ag7
(g11
S'\x86x<\x9b@\x80\xb2@'
p5348
tp5349
Rp5350
ag7
(g11
S'\x16\x82\x936\x99\x83\xb2@'
p5351
tp5352
Rp5353
ag7
(g11
S'\xe5\xcd\xb5vp\x84\xb2@'
p5354
tp5355
Rp5356
ag7
(g11
S'wg\xb0\x0b|\x87\xb2@'
p5357
tp5358
Rp5359
ag7
(g11
S'\xca\xdc\x1d\x8c\x9b\x8a\xb2@'
p5360
tp5361
Rp5362
ag7
(g11
S'\xa1\xff\xbf\xfd\xff\x8c\xb2@'
p5363
tp5364
Rp5365
ag7
(g11
S'\xc2U\xebNQ\x90\xb2@'
p5366
tp5367
Rp5368
ag7
(g11
S'4\xc4(\x10\xb5\x90\xb2@'
p5369
tp5370
Rp5371
ag7
(g11
S'`!8v\x02\x95\xb2@'
p5372
tp5373
Rp5374
ag7
(g11
S'\x87\r\xdb_\xdb\x9c\xb2@'
p5375
tp5376
Rp5377
ag7
(g11
S'\xc7\x03,\xee}\x9e\xb2@'
p5378
tp5379
Rp5380
ag7
(g11
S"U'\xfao\x92\xa0\xb2@"
p5381
tp5382
Rp5383
ag7
(g11
S'\xc2\xb2\x00\xa8\x08\x99\xb2@'
p5384
tp5385
Rp5386
ag7
(g11
S'\xe6|\xa3\xf7+\xa5\xb2@'
p5387
tp5388
Rp5389
ag7
(g11
S'l\xcb\xfdL\x12\xa6\xb2@'
p5390
tp5391
Rp5392
ag7
(g11
S'\xb0\x946y\x9c\xa7\xb2@'
p5393
tp5394
Rp5395
ag7
(g11
S'\xe3\xd7E53\xaa\xb2@'
p5396
tp5397
Rp5398
ag7
(g11
S'g\xef\x913T\xac\xb2@'
p5399
tp5400
Rp5401
ag7
(g11
S'\xdf\xaf\x0b\xe7\x9e\xae\xb2@'
p5402
tp5403
Rp5404
ag7
(g11
S'\xe7\xf0\x90J\xbf\xaf\xb2@'
p5405
tp5406
Rp5407
ag7
(g11
S'\x12U\xad\x8a\xe9\xb1\xb2@'
p5408
tp5409
Rp5410
ag7
(g11
S'\xdc\x9a\xeb\x03\x00\xb3\xb2@'
p5411
tp5412
Rp5413
ag7
(g11
S'\x075\xa8\x16J\xb5\xb2@'
p5414
tp5415
Rp5416
ag7
(g11
S'\x15?}N\xd1\xb7\xb2@'
p5417
tp5418
Rp5419
ag7
(g11
S'\x8cD\x15!q\xb8\xb2@'
p5420
tp5421
Rp5422
ag7
(g11
S'\xa6Q\x8b\x8e\x1e\xb9\xb2@'
p5423
tp5424
Rp5425
ag7
(g11
S'\xef\xa6\xab\xa3\xcd\xbb\xb2@'
p5426
tp5427
Rp5428
ag7
(g11
S'\x97\xc6\x15\x1f\xde\xbd\xb2@'
p5429
tp5430
Rp5431
ag7
(g11
S'\x053\xaf\x81m\xb2\xb1@'
p5432
tp5433
Rp5434
ag7
(g11
S"\xa9 +\x1c'\xb7\xb1@"
p5435
tp5436
Rp5437
ag7
(g11
S'\x83$\xbe\xfb\x89\xb9\xb1@'
p5438
tp5439
Rp5440
ag7
(g11
S'K\xaf\xaf\xe3\xd9\xbc\xb1@'
p5441
tp5442
Rp5443
ag7
(g11
S'\xdc\xf7\xfdu\t\xc1\xb1@'
p5444
tp5445
Rp5446
ag7
(g11
S'MgA\xd5\x87\xc3\xb1@'
p5447
tp5448
Rp5449
ag7
(g11
S'qG\xf3\x85\x0e\xc8\xb1@'
p5450
tp5451
Rp5452
ag7
(g11
S'\xb5My|\x82\xcb\xb1@'
p5453
tp5454
Rp5455
ag7
(g11
S'\xf1\xd1r\x00\x18\xce\xb1@'
p5456
tp5457
Rp5458
ag7
(g11
S'\n\xd2\x8c\xb4\xe4\xd0\xb1@'
p5459
tp5460
Rp5461
ag7
(g11
S'\xddb\x0e\xd0\x8b\xd3\xb1@'
p5462
tp5463
Rp5464
ag7
(g11
S'\\)\x9a\x04O\xd4\xb1@'
p5465
tp5466
Rp5467
ag7
(g11
S'9\xa4\x11f\xbe\xd4\xb1@'
p5468
tp5469
Rp5470
ag7
(g11
S'\xcd@a\x91\x18\xd7\xb1@'
p5471
tp5472
Rp5473
ag7
(g11
S'\x03\x14TK\xff\xd7\xb1@'
p5474
tp5475
Rp5476
ag7
(g11
S'\xf4\xc3\x1a\x07\xcb\xda\xb1@'
p5477
tp5478
Rp5479
ag7
(g11
S'_rP\x8c\xc3\xdc\xb1@'
p5480
tp5481
Rp5482
ag7
(g11
S'|\xc7|I\x1c\xdf\xb1@'
p5483
tp5484
Rp5485
ag7
(g11
S'\xde_Q\x19T\xe3\xb1@'
p5486
tp5487
Rp5488
ag7
(g11
S'\x89\r\xa6}\t\xe5\xb1@'
p5489
tp5490
Rp5491
ag7
(g11
S'\xad\xdf\xc9\x02P\xec\xb1@'
p5492
tp5493
Rp5494
ag7
(g11
S']j\r\xc6\x95\xf0\xb1@'
p5495
tp5496
Rp5497
ag7
(g11
S'\x93\xab\xa3li\xf3\xb1@'
p5498
tp5499
Rp5500
ag7
(g11
S'\xe7e\xf1\xa8\xe5\xf6\xb1@'
p5501
tp5502
Rp5503
ag7
(g11
S'\x1e\x0fI\x93\t\xfb\xb1@'
p5504
tp5505
Rp5506
ag7
(g11
S'\x01<\xcf+\xc1\xff\xb1@'
p5507
tp5508
Rp5509
ag7
(g11
S'\xe2C\xda?\x8e\x01\xb2@'
p5510
tp5511
Rp5512
ag7
(g11
S'\xe7n\x03\x9c\x17\x03\xb2@'
p5513
tp5514
Rp5515
ag7
(g11
S'\xe0\x02\xf2\x8av\x05\xb2@'
p5516
tp5517
Rp5518
ag7
(g11
S'\xfa\x98Dk,\x07\xb2@'
p5519
tp5520
Rp5521
ag7
(g11
S'\xef\xf6\xc3Z\xed\x0c\xb2@'
p5522
tp5523
Rp5524
ag7
(g11
S'.\xfb\x03\xc06\x10\xb2@'
p5525
tp5526
Rp5527
ag7
(g11
S'{\xf1\x89i,\x13\xb2@'
p5528
tp5529
Rp5530
ag7
(g11
S'xl\x89\xa5j\x14\xb2@'
p5531
tp5532
Rp5533
ag7
(g11
S'\x88\xea\x13\x88@\x1d\xb2@'
p5534
tp5535
Rp5536
ag7
(g11
S'O\xd3sR\x1b!\xb2@'
p5537
tp5538
Rp5539
ag7
(g11
S'r\x04n\x05d#\xb2@'
p5540
tp5541
Rp5542
ag7
(g11
S'\r\xb7\xd5\xee\xa0$\xb2@'
p5543
tp5544
Rp5545
ag7
(g11
S"\xacb\xd1a%'\xb2@"
p5546
tp5547
Rp5548
ag7
(g11
S'\xe9\xec\xfdw\x17*\xb2@'
p5549
tp5550
Rp5551
ag7
(g11
S'\xac\x93\xc7\xaew+\xb2@'
p5552
tp5553
Rp5554
ag7
(g11
S'\xce&e(\xe41\xb2@'
p5555
tp5556
Rp5557
ag7
(g11
S'a\x11\xa6\xd5\x117\xb2@'
p5558
tp5559
Rp5560
ag7
(g11
S'\x9dB?\xa1\xe19\xb2@'
p5561
tp5562
Rp5563
ag7
(g11
S'\x85\xbbu\x9b\xb5:\xb2@'
p5564
tp5565
Rp5566
ag7
(g11
S'\xabx|\xec\x0c<\xb2@'
p5567
tp5568
Rp5569
ag7
(g11
S'S\xce\xfa\xaa\xde=\xb2@'
p5570
tp5571
Rp5572
ag7
(g11
S'k\xd4\xb7F\xb0A\xb2@'
p5573
tp5574
Rp5575
ag7
(g11
S'v\xca\xfdS\xfbC\xb2@'
p5576
tp5577
Rp5578
ag7
(g11
S'\xdc \xefV"H\xb2@'
p5579
tp5580
Rp5581
ag7
(g11
S"\x02\xfb\xb7m'J\xb2@"
p5582
tp5583
Rp5584
ag7
(g11
S'88rNBK\xb2@'
p5585
tp5586
Rp5587
ag7
(g11
S'\x9aFj\xaa N\xb2@'
p5588
tp5589
Rp5590
ag7
(g11
S'\x00X\t\xc2{R\xb2@'
p5591
tp5592
Rp5593
ag7
(g11
S'\x1bG\xc7\xa4\xf1T\xb2@'
p5594
tp5595
Rp5596
ag7
(g11
S'\x93n\r\xe5\x06W\xb2@'
p5597
tp5598
Rp5599
ag7
(g11
S'\xa9v\xa8h\x14Z\xb2@'
p5600
tp5601
Rp5602
ag7
(g11
S'G\x95\x0e\x1a\n\\\xb2@'
p5603
tp5604
Rp5605
ag7
(g11
S'\xe8\xe8m\x1a@^\xb2@'
p5606
tp5607
Rp5608
ag7
(g11
S'\xc0\xb9\xe6\xbc\xbeQ\xb1@'
p5609
tp5610
Rp5611
ag7
(g11
S'e\xc55\x93^W\xb1@'
p5612
tp5613
Rp5614
ag7
(g11
S'<5R\x8c\xb4]\xb1@'
p5615
tp5616
Rp5617
ag7
(g11
S'\x11M\x8b$\xda`\xb1@'
p5618
tp5619
Rp5620
ag7
(g11
S"\xd1\xbd\xbc'nd\xb1@"
p5621
tp5622
Rp5623
ag7
(g11
S'\x9f?o\xb0\xdbi\xb1@'
p5624
tp5625
Rp5626
ag7
(g11
S'8\xfa5\x92Zl\xb1@'
p5627
tp5628
Rp5629
ag7
(g11
S'\xb5\xe7s\x16*q\xb1@'
p5630
tp5631
Rp5632
ag7
(g11
S'O\xd9a\xe5qu\xb1@'
p5633
tp5634
Rp5635
ag7
(g11
S'u\xbe\x0c\xe5\xddv\xb1@'
p5636
tp5637
Rp5638
ag7
(g11
S'I\x18\x1d\xb6\xbbz\xb1@'
p5639
tp5640
Rp5641
ag7
(g11
S'\xa9_\x86Y\xc9\x81\xb1@'
p5642
tp5643
Rp5644
ag7
(g11
S'h\xa5\xfc\xd0\xcd\x86\xb1@'
p5645
tp5646
Rp5647
ag7
(g11
S'\x00\xdf\xf7\xe5\xd5\x8a\xb1@'
p5648
tp5649
Rp5650
ag7
(g11
S'\\\x87\xadjP\x8d\xb1@'
p5651
tp5652
Rp5653
ag7
(g11
S'j\x8ac\x01I\x92\xb1@'
p5654
tp5655
Rp5656
ag7
(g11
S'ks\x8e=\xd9\x93\xb1@'
p5657
tp5658
Rp5659
ag7
(g11
S'\xe2\xc5\xea\xb1\xd4\x96\xb1@'
p5660
tp5661
Rp5662
ag7
(g11
S'3s\r\xea\xff\x98\xb1@'
p5663
tp5664
Rp5665
ag7
(g11
S'\x0c\xa2!\x8ba\x9a\xb1@'
p5666
tp5667
Rp5668
ag7
(g11
S'FJ\xeb3\xb1\x9d\xb1@'
p5669
tp5670
Rp5671
ag7
(g11
S'O\x93=\x07\xba\x9e\xb1@'
p5672
tp5673
Rp5674
ag7
(g11
S'\xdc:\x1c\x8c\x10\xa3\xb1@'
p5675
tp5676
Rp5677
ag7
(g11
S',y\xd0\xd7\x1a\xa7\xb1@'
p5678
tp5679
Rp5680
ag7
(g11
S'#\xaaH\xcf4\xaa\xb1@'
p5681
tp5682
Rp5683
ag7
(g11
S'\x93]\xcd\x91\xb9\xac\xb1@'
p5684
tp5685
Rp5686
ag7
(g11
S'T\xcd"\xba\x87\xb2\xb1@'
p5687
tp5688
Rp5689
ag7
(g11
S'k\xbb\xc7\xe5\xfb\xb4\xb1@'
p5690
tp5691
Rp5692
ag7
(g11
S'\xa6\xc8R\x84\xff\xb5\xb1@'
p5693
tp5694
Rp5695
ag7
(g11
S'z\xd4X\xf7&\xb7\xb1@'
p5696
tp5697
Rp5698
ag7
(g11
S'~W\xd0oi\xb9\xb1@'
p5699
tp5700
Rp5701
ag7
(g11
S'\x1d\xd6\xe7\xba\xdf\xbc\xb1@'
p5702
tp5703
Rp5704
ag7
(g11
S'\x92\xbe\x01 \x0b\xc1\xb1@'
p5705
tp5706
Rp5707
ag7
(g11
S'(\x84\x15\x11\x97\xc3\xb1@'
p5708
tp5709
Rp5710
ag7
(g11
S'\xc4\x9e\x13"\x0c\xc8\xb1@'
p5711
tp5712
Rp5713
ag7
(g11
S'2Wb\xcd\xa1\xcb\xb1@'
p5714
tp5715
Rp5716
ag7
(g11
S'\xe2\xa4F\x0b?\xce\xb1@'
p5717
tp5718
Rp5719
ag7
(g11
S'\n\xac\xf5\xfb\xe3\xd0\xb1@'
p5720
tp5721
Rp5722
ag7
(g11
S'\x18s\xe5\x83}\xd3\xb1@'
p5723
tp5724
Rp5725
ag7
(g11
S'l\r\xf75R\xd4\xb1@'
p5726
tp5727
Rp5728
ag7
(g11
S'e\xe1\xbb\x03\xb5\xd4\xb1@'
p5729
tp5730
Rp5731
ag7
(g11
S'\xcf\x14^6\x1d\xd7\xb1@'
p5732
tp5733
Rp5734
ag7
(g11
S'-\x0ek\x89\x0c\xd8\xb1@'
p5735
tp5736
Rp5737
ag7
(g11
S"j:\x1e'\xb0\xd9\xb1@"
p5738
tp5739
Rp5740
ag7
(g11
S'z\xbcpJ\xd1\xda\xb1@'
p5741
tp5742
Rp5743
ag7
(g11
S'W\x08\xf5K\xbf\xdc\xb1@'
p5744
tp5745
Rp5746
ag7
(g11
S'\xfb\xca\xf4\x96\x18\xdf\xb1@'
p5747
tp5748
Rp5749
ag7
(g11
S'\xbdG\x12\xb9U\xe3\xb1@'
p5750
tp5751
Rp5752
ag7
(g11
S'\xf8\x12\xd09\x16\xe5\xb1@'
p5753
tp5754
Rp5755
ag7
(g11
S'\x10\xab\xbb\xa3U\xec\xb1@'
p5756
tp5757
Rp5758
ag7
(g11
S'kR\x89Y\x93\xf0\xb1@'
p5759
tp5760
Rp5761
ag7
(g11
S'\xde\xd5V7j\xf3\xb1@'
p5762
tp5763
Rp5764
ag7
(g11
S'B_\x89\xf3\x05\xf4\xb1@'
p5765
tp5766
Rp5767
ag7
(g11
S'\xde\xe4\xcc\xf2\xe1\xf6\xb1@'
p5768
tp5769
Rp5770
ag7
(g11
S'\x8e\xf4\t7\x04\xfb\xb1@'
p5771
tp5772
Rp5773
ag7
(g11
S'\x06\xc6\x92\x85:\xfc\xb0@'
p5774
tp5775
Rp5776
ag7
(g11
S'\xc19v\x11M\x00\xb1@'
p5777
tp5778
Rp5779
ag7
(g11
S'\xee,\x90b\x14\n\xb1@'
p5780
tp5781
Rp5782
ag7
(g11
S'\x0e\xda\x81;\xe2\r\xb1@'
p5783
tp5784
Rp5785
ag7
(g11
S'\x02\xe0\xc8\xa7\xee\x0f\xb1@'
p5786
tp5787
Rp5788
ag7
(g11
S'\x1byl\x94\xc7\x12\xb1@'
p5789
tp5790
Rp5791
ag7
(g11
S'\xadfx2\x02\x16\xb1@'
p5792
tp5793
Rp5794
ag7
(g11
S'\xe5Z\xf0\x88#\x18\xb1@'
p5795
tp5796
Rp5797
ag7
(g11
S'\xba\xf5\xe0S\x17\x1a\xb1@'
p5798
tp5799
Rp5800
ag7
(g11
S'n\xc2\x8e-\xa7\x1b\xb1@'
p5801
tp5802
Rp5803
ag7
(g11
S'\x8e\xb2(\x80\xd3\x1d\xb1@'
p5804
tp5805
Rp5806
ag7
(g11
S'\x97\x07\xc1@\xa9\x1f\xb1@'
p5807
tp5808
Rp5809
ag7
(g11
S'\xd2L\x81\xc7,!\xb1@'
p5810
tp5811
Rp5812
ag7
(g11
S'`\x8d\xffT\x97#\xb1@'
p5813
tp5814
Rp5815
ag7
(g11
S"\xf8)\xc9l\x05'\xb1@"
p5816
tp5817
Rp5818
ag7
(g11
S"g'\xe3,\xc8(\xb1@"
p5819
tp5820
Rp5821
ag7
(g11
S"\x08\xbf/\xd8'0\xb1@"
p5822
tp5823
Rp5824
ag7
(g11
S'C\xd9\x1d\x1f\xf50\xb1@'
p5825
tp5826
Rp5827
ag7
(g11
S'3g6\xcb\xd22\xb1@'
p5828
tp5829
Rp5830
ag7
(g11
S'\xc81\r\xa0\xaa4\xb1@'
p5831
tp5832
Rp5833
ag7
(g11
S'6kQ\xdb\xe38\xb1@'
p5834
tp5835
Rp5836
ag7
(g11
S'\x07\xed\x84i\xc49\xb1@'
p5837
tp5838
Rp5839
ag7
(g11
S'\x1a\x15\x0f\xc2Y>\xb1@'
p5840
tp5841
Rp5842
ag7
(g11
S'\x97M\x89D\xc1@\xb1@'
p5843
tp5844
Rp5845
ag7
(g11
S'\x9e\x8d\xa9]\xdbD\xb1@'
p5846
tp5847
Rp5848
ag7
(g11
S'\x8ctR\xfb\xf0E\xb1@'
p5849
tp5850
Rp5851
ag7
(g11
S'\xc9\xc2l\xe0\xfbI\xb1@'
p5852
tp5853
Rp5854
ag7
(g11
S'D6\xe4~-N\xb1@'
p5855
tp5856
Rp5857
ag7
(g11
S'\xe8vQ\x02\x11O\xb1@'
p5858
tp5859
Rp5860
ag7
(g11
S'O\x8c\xab/XS\xb1@'
p5861
tp5862
Rp5863
ag7
(g11
S"',\xb1\xc1zW\xb1@"
p5864
tp5865
Rp5866
ag7
(g11
S'\nS\xef{\x9a[\xb1@'
p5867
tp5868
Rp5869
ag7
(g11
S'\xa6\xb8y\x10\xaf]\xb1@'
p5870
tp5871
Rp5872
ag7
(g11
S'\xef"U\x84\x05a\xb1@'
p5873
tp5874
Rp5875
ag7
(g11
S'y6\xf2tYd\xb1@'
p5876
tp5877
Rp5878
ag7
(g11
S'\xc3\xf5`\xc0\xc5g\xb1@'
p5879
tp5880
Rp5881
ag7
(g11
S'HN}\xe7\xf0i\xb1@'
p5882
tp5883
Rp5884
ag7
(g11
S'\x95&i\xd6_l\xb1@'
p5885
tp5886
Rp5887
ag7
(g11
S'o]\x17d\nm\xb1@'
p5888
tp5889
Rp5890
ag7
(g11
S'\xd9\xbbR,\x94o\xb1@'
p5891
tp5892
Rp5893
ag7
(g11
S'\xfd9\x95"+q\xb1@'
p5894
tp5895
Rp5896
ag7
(g11
S'x\x05N\xdeou\xb1@'
p5897
tp5898
Rp5899
ag7
(g11
S'0\xf1^\xfb\xc0z\xb1@'
p5900
tp5901
Rp5902
ag7
(g11
S'\xd4\xb9\\\xe2|~\xb1@'
p5903
tp5904
Rp5905
ag7
(g11
S'\xb4`>\x16\xcb\x81\xb1@'
p5906
tp5907
Rp5908
ag7
(g11
S'\x14@@\xc2>\x83\xb1@'
p5909
tp5910
Rp5911
ag7
(g11
S'jDl\x8a\xcb\x86\xb1@'
p5912
tp5913
Rp5914
ag7
(g11
S'|\t\x11\x1dz\x88\xb1@'
p5915
tp5916
Rp5917
ag7
(g11
S'VN\xb2Z\xdd\x8a\xb1@'
p5918
tp5919
Rp5920
ag7
(g11
S'\xf6_\x94\xc0P\x8d\xb1@'
p5921
tp5922
Rp5923
ag7
(g11
S'\xe4\x1d\x87RN\x92\xb1@'
p5924
tp5925
Rp5926
ag7
(g11
S'\x1dU\x9b\x08\xd9\x92\xb1@'
p5927
tp5928
Rp5929
ag7
(g11
S'\r"l-\xde\x93\xb1@'
p5930
tp5931
Rp5932
ag7
(g11
S'\x0c\xcfLi\xce\x96\xb1@'
p5933
tp5934
Rp5935
ag7
(g11
S'\x88"Y\x82\x10\x99\xb1@'
p5936
tp5937
Rp5938
ag7
(g11
S'\xecM\xe7\xec\xae\x9b\xb1@'
p5939
tp5940
Rp5941
ag7
(g11
S'z\xe7\xcf/v\x9d\xb1@'
p5942
tp5943
Rp5944
ag7
(g11
S'\xdc\xdb\x80K\xbb\x9e\xb1@'
p5945
tp5946
Rp5947
ag7
(g11
S'\xd1\x10\xc7\xe2\x06\xa3\xb1@'
p5948
tp5949
Rp5950
ag7
(g11
S'o@\xb4ND\xaa\xb0@'
p5951
tp5952
Rp5953
ag7
(g11
S'\xcbe\xdcl(\xb0\xb0@'
p5954
tp5955
Rp5956
ag7
(g11
S']D\x13\xcb\x83\xb5\xb0@'
p5957
tp5958
Rp5959
ag7
(g11
S';p\xa4\xf7\xca\xba\xb0@'
p5960
tp5961
Rp5962
ag7
(g11
S'\xdfF\xdb\xff\x8f\xc0\xb0@'
p5963
tp5964
Rp5965
ag7
(g11
S'\xb6G\xc4\x84\xbb\xc9\xb0@'
p5966
tp5967
Rp5968
ag7
(g11
S'\xaa\xb3\xfag\x18\xcc\xb0@'
p5969
tp5970
Rp5971
ag7
(g11
S'SVH\xeb\xc1\xcc\xb0@'
p5972
tp5973
Rp5974
ag7
(g11
S'5\xbd\x07 \x14\xd3\xb0@'
p5975
tp5976
Rp5977
ag7
(g11
S'\x83\xe57@~\xd5\xb0@'
p5978
tp5979
Rp5980
ag7
(g11
S'\xa0\x06\xecS\xbd\xd7\xb0@'
p5981
tp5982
Rp5983
ag7
(g11
S'+\x94\x17\x9e\xe4\xd8\xb0@'
p5984
tp5985
Rp5986
ag7
(g11
S'\x10\xacXw-\xdb\xb0@'
p5987
tp5988
Rp5989
ag7
(g11
S'\xc0\xc9m\xb95\xde\xb0@'
p5990
tp5991
Rp5992
ag7
(g11
S'\xb4i\xa2\xfb\xff\xdf\xb0@'
p5993
tp5994
Rp5995
ag7
(g11
S'\x83\x90S\x9f\xdc\xe8\xb0@'
p5996
tp5997
Rp5998
ag7
(g11
S'\x07\xdc\x15\xfd0\xeb\xb0@'
p5999
tp6000
Rp6001
ag7
(g11
S'\xa0\xf3b"\t\xec\xb0@'
p6002
tp6003
Rp6004
ag7
(g11
S'H\x13yu\x8a\xed\xb0@'
p6005
tp6006
Rp6007
ag7
(g11
S'\x08i\xb8lw\xef\xb0@'
p6008
tp6009
Rp6010
ag7
(g11
S'\xb3(\xa5\x11\r\xf1\xb0@'
p6011
tp6012
Rp6013
ag7
(g11
S'\xa3{!`f\xf6\xb0@'
p6014
tp6015
Rp6016
ag7
(g11
S'\xe3[\xef\x0c?\xf9\xb0@'
p6017
tp6018
Rp6019
ag7
(g11
S'\x112SI\x0c\xfc\xb0@'
p6020
tp6021
Rp6022
ag7
(g11
S'}eO\xad\xfe\xfc\xb0@'
p6023
tp6024
Rp6025
ag7
(g11
S'<\xb65<J\x00\xb1@'
p6026
tp6027
Rp6028
ag7
(g11
S'G\xcf\xfc\x9ad\x01\xb1@'
p6029
tp6030
Rp6031
ag7
(g11
S'\x07Q#\xac.\x06\xb1@'
p6032
tp6033
Rp6034
ag7
(g11
S'\xc8\xbb\xa7\x91<\x07\xb1@'
p6035
tp6036
Rp6037
ag7
(g11
S'\x99kx\x18\x0f\n\xb1@'
p6038
tp6039
Rp6040
ag7
(g11
S'+\xb1\x9e\x17\xbf\r\xb1@'
p6041
tp6042
Rp6043
ag7
(g11
S'y\x83\xb1\xee\xf4\x0f\xb1@'
p6044
tp6045
Rp6046
ag7
(g11
S"z'\x18\xd7\xbd\x12\xb1@"
p6047
tp6048
Rp6049
ag7
(g11
S'a\x087I\x97\x13\xb1@'
p6050
tp6051
Rp6052
ag7
(g11
S'\x06\xdc\xe9?&\x16\xb1@'
p6053
tp6054
Rp6055
ag7
(g11
S'a\xbf~\xff-\x18\xb1@'
p6056
tp6057
Rp6058
ag7
(g11
S'D\x88Zc2\x1a\xb1@'
p6059
tp6060
Rp6061
ag7
(g11
S'\xcb\xf5\xd9\xcf\xa6\x1b\xb1@'
p6062
tp6063
Rp6064
ag7
(g11
S'\x97\xc1\x08\xe9\xd1\x1d\xb1@'
p6065
tp6066
Rp6067
ag7
(g11
S'\xc4\xd0\x8b/\xcb\x1e\xb1@'
p6068
tp6069
Rp6070
ag7
(g11
S'+%\x81\xf9-!\xb1@'
p6071
tp6072
Rp6073
ag7
(g11
S'\xb2\x03|\xb4\x8c#\xb1@'
p6074
tp6075
Rp6076
ag7
(g11
S"8\xdfB{\x12'\xb1@"
p6077
tp6078
Rp6079
ag7
(g11
S'z\x82\xc1E\xcd(\xb1@'
p6080
tp6081
Rp6082
ag7
(g11
S'\xd7[\xb4n\x180\xb1@'
p6083
tp6084
Rp6085
ag7
(g11
S'\xe3\xe2\xd2L\xfa0\xb1@'
p6086
tp6087
Rp6088
ag7
(g11
S'\xf1j\x05l\xd82\xb1@'
p6089
tp6090
Rp6091
ag7
(g11
S'\x8aF9\xd2\xb04\xb1@'
p6092
tp6093
Rp6094
ag7
(g11
S'\xb8\x15:\x8dI6\xb1@'
p6095
tp6096
Rp6097
ag7
(g11
S't\xed\x1b\x9f\xed8\xb1@'
p6098
tp6099
Rp6100
ag7
(g11
S'NQW\xa8Z>\xb1@'
p6101
tp6102
Rp6103
ag7
(g11
S'Z\x85Ue\xbe@\xb1@'
p6104
tp6105
Rp6106
ag7
(g11
S'\x9aH\xf5\x05\xdcD\xb1@'
p6107
tp6108
Rp6109
ag7
(g11
S'R\xd7vb\xe9E\xb1@'
p6110
tp6111
Rp6112
ag7
(g11
S'\xe1\x8fi_\xfdI\xb1@'
p6113
tp6114
Rp6115
ag7
(g11
S'\x9aVt#/N\xb1@'
p6116
tp6117
Rp6118
ag7
(g11
S'a\xe7{\x9c\xd7V\xb0@'
p6119
tp6120
Rp6121
ag7
(g11
S'\xd2\x87u\xe5\x8f]\xb0@'
p6122
tp6123
Rp6124
ag7
(g11
S'h\xb8\x1bP\xb3^\xb0@'
p6125
tp6126
Rp6127
ag7
(g11
S'q\xa4PiKf\xb0@'
p6128
tp6129
Rp6130
ag7
(g11
S'\xfct\xd5Q\xa7h\xb0@'
p6131
tp6132
Rp6133
ag7
(g11
S'\xfe\x00\xb8.\xd9i\xb0@'
p6134
tp6135
Rp6136
ag7
(g11
S'\x84\xd9\xa3\x04Uk\xb0@'
p6137
tp6138
Rp6139
ag7
(g11
S'\x12?W`\xa6p\xb0@'
p6140
tp6141
Rp6142
ag7
(g11
S'\x81\xa12\xdc\xebr\xb0@'
p6143
tp6144
Rp6145
ag7
(g11
S'\xee2\x02\x87\xf4t\xb0@'
p6146
tp6147
Rp6148
ag7
(g11
S'\xee[\xd0}\xb7v\xb0@'
p6149
tp6150
Rp6151
ag7
(g11
S'\xb0X,]ey\xb0@'
p6152
tp6153
Rp6154
ag7
(g11
S'\x9a\xde\xf5\xdb\xa1z\xb0@'
p6155
tp6156
Rp6157
ag7
(g11
S'\xe3\xef\x02\xe3\xfe{\xb0@'
p6158
tp6159
Rp6160
ag7
(g11
S'\xd9?z~\xb3~\xb0@'
p6161
tp6162
Rp6163
ag7
(g11
S'\xa5\xbcr1\x18\x83\xb0@'
p6164
tp6165
Rp6166
ag7
(g11
S'h\xc3\xd4%$\x84\xb0@'
p6167
tp6168
Rp6169
ag7
(g11
S'\xd7\xb4_\xfc\xe8\x85\xb0@'
p6170
tp6171
Rp6172
ag7
(g11
S'(\xabO\x96\x9f\x8b\xb0@'
p6173
tp6174
Rp6175
ag7
(g11
S'\t\x84\xf9\xdb4\x8d\xb0@'
p6176
tp6177
Rp6178
ag7
(g11
S'(\x96\rG\xf3\x90\xb0@'
p6179
tp6180
Rp6181
ag7
(g11
S'N\xb9u\x94u\x97\xb0@'
p6182
tp6183
Rp6184
ag7
(g11
S'\xa4\x11w\xe6T\x9a\xb0@'
p6185
tp6186
Rp6187
ag7
(g11
S'vT\xcd\x05+\x9b\xb0@'
p6188
tp6189
Rp6190
ag7
(g11
S'U\xdei\x14r\x9d\xb0@'
p6191
tp6192
Rp6193
ag7
(g11
S'k#\xc4f4\xa0\xb0@'
p6194
tp6195
Rp6196
ag7
(g11
S'NR\x1a=\x8d\xa1\xb0@'
p6197
tp6198
Rp6199
ag7
(g11
S'5J\x93\xe0W\xa3\xb0@'
p6200
tp6201
Rp6202
ag7
(g11
S"\xfc\xc1<'D\xaa\xb0@"
p6203
tp6204
Rp6205
ag7
(g11
S'\xaa\x91\x98\xf9(\xb0\xb0@'
p6206
tp6207
Rp6208
ag7
(g11
S'\x8cRZ\xc2\xfe\xb2\xb0@'
p6209
tp6210
Rp6211
ag7
(g11
S'\x80\xcd\x8c\xf3\x86\xb5\xb0@'
p6212
tp6213
Rp6214
ag7
(g11
S'\xbf\x9e\x88P"\xb6\xb0@'
p6215
tp6216
Rp6217
ag7
(g11
S'@\x04y\xd0k\xb8\xb0@'
p6218
tp6219
Rp6220
ag7
(g11
S'P\x08\xe3\xa6\t\xba\xb0@'
p6221
tp6222
Rp6223
ag7
(g11
S'\x81\xb4\xdaw\xde\xba\xb0@'
p6224
tp6225
Rp6226
ag7
(g11
S'\xce]\x15\xb1\x92\xc0\xb0@'
p6227
tp6228
Rp6229
ag7
(g11
S'\xff\xc0By\x92\xc1\xb0@'
p6230
tp6231
Rp6232
ag7
(g11
S'\xf8\x01\t@\xb6\xc3\xb0@'
p6233
tp6234
Rp6235
ag7
(g11
S'f\xbf\xb1\x9e\xa1\xc6\xb0@'
p6236
tp6237
Rp6238
ag7
(g11
S'\x0ex.i#\xc9\xb0@'
p6239
tp6240
Rp6241
ag7
(g11
S'\t\xe8u \xcc\xc9\xb0@'
p6242
tp6243
Rp6244
ag7
(g11
S'\x13\xa6\xf8v\x18\xcc\xb0@'
p6245
tp6246
Rp6247
ag7
(g11
S"'\xcd\x9b\xc0\xca\xcc\xb0@"
p6248
tp6249
Rp6250
ag7
(g11
S'$\xd4J\xd5\xe3\xcf\xb0@'
p6251
tp6252
Rp6253
ag7
(g11
S'\x91\xe6\x93b\x10\xd3\xb0@'
p6254
tp6255
Rp6256
ag7
(g11
S'7&\xf0\x98\xb6\xd7\xb0@'
p6257
tp6258
Rp6259
ag7
(g11
S'Y\xaf%\\\xec\xd8\xb0@'
p6260
tp6261
Rp6262
ag7
(g11
S'97\x1d\xe42\xdb\xb0@'
p6263
tp6264
Rp6265
ag7
(g11
S'\xfd\xbe^ _\xde\xb0@'
p6266
tp6267
Rp6268
ag7
(g11
S'\t\xdc^2}\xe0\xb0@'
p6269
tp6270
Rp6271
ag7
(g11
S'@\xfa\xd7\x00\x0f\xe5\xb0@'
p6272
tp6273
Rp6274
ag7
(g11
S'\r\x903J\xb8\xe5\xb0@'
p6275
tp6276
Rp6277
ag7
(g11
S'\xea2\xb9Q\xd4\xe8\xb0@'
p6278
tp6279
Rp6280
ag7
(g11
S'\x95\xbacjQ\xe9\xb0@'
p6281
tp6282
Rp6283
ag7
(g11
S'F\xd2V\xd41\xeb\xb0@'
p6284
tp6285
Rp6286
ag7
(g11
S'\x94=\xea\xf1\x02\xec\xb0@'
p6287
tp6288
Rp6289
ag7
(g11
S'\xef\x81\x19\r\x8e\xed\xb0@'
p6290
tp6291
Rp6292
ag7
(g11
S'\x1d/\xdc\xb0l\xef\xb0@'
p6293
tp6294
Rp6295
ag7
(g11
S'\xe5\xefiB\xf7\xf0\xb0@'
p6296
tp6297
Rp6298
ag7
(g11
S'UZ\xa3\xd6I\xf1\xb0@'
p6299
tp6300
Rp6301
ag7
(g11
S'5\xd5\xba*`\xf6\xb0@'
p6302
tp6303
Rp6304
ag7
(g11
S'{\xcb$\x1d?\xf9\xb0@'
p6305
tp6306
Rp6307
ag7
(g11
S')\x84u\xafU\x0c\xb0@'
p6308
tp6309
Rp6310
ag7
(g11
S"\xdcR\xe5\xc6'\r\xb0@"
p6311
tp6312
Rp6313
ag7
(g11
S'zK\xf5\\\xb6\x0e\xb0@'
p6314
tp6315
Rp6316
ag7
(g11
S'\xa9S\x18V\xd6\x10\xb0@'
p6317
tp6318
Rp6319
ag7
(g11
S'\xcfQ\x10/\xac\x13\xb0@'
p6320
tp6321
Rp6322
ag7
(g11
S'L\xf91\x92\x8f\x14\xb0@'
p6323
tp6324
Rp6325
ag7
(g11
S'\x83\xf2\x00\\O\x1f\xb0@'
p6326
tp6327
Rp6328
ag7
(g11
S'5\xbf\xfb\xec\x86 \xb0@'
p6329
tp6330
Rp6331
ag7
(g11
S'\xeb\xe8\xd1\xc6\xf4"\xb0@'
p6332
tp6333
Rp6334
ag7
(g11
S'\xd2F\xf5:\xb7#\xb0@'
p6335
tp6336
Rp6337
ag7
(g11
S'l\xc8\xbd\x81\xf6%\xb0@'
p6338
tp6339
Rp6340
ag7
(g11
S'\xe9&+\xd6$,\xb0@'
p6341
tp6342
Rp6343
ag7
(g11
S'B\xefy\xee\x9f.\xb0@'
p6344
tp6345
Rp6346
ag7
(g11
S'F\xddg\xa5\x8d/\xb0@'
p6347
tp6348
Rp6349
ag7
(g11
S'\xd69\x95\x92\x164\xb0@'
p6350
tp6351
Rp6352
ag7
(g11
S'3x\x1b\xe1"<\xb0@'
p6353
tp6354
Rp6355
ag7
(g11
S'R[\xe0\x15\x93>\xb0@'
p6356
tp6357
Rp6358
ag7
(g11
S'\x02N\xcd`-D\xb0@'
p6359
tp6360
Rp6361
ag7
(g11
S'\xb0\x9c\x14p\xb6E\xb0@'
p6362
tp6363
Rp6364
ag7
(g11
S'2l\xd9\x14\xd5H\xb0@'
p6365
tp6366
Rp6367
ag7
(g11
S'\xa2\xa7w\x95tJ\xb0@'
p6368
tp6369
Rp6370
ag7
(g11
S'4\xc4\x00j8O\xb0@'
p6371
tp6372
Rp6373
ag7
(g11
S'\x19t>8EK\xb0@'
p6374
tp6375
Rp6376
ag7
(g11
S'<e\xc7\x9aLS\xb0@'
p6377
tp6378
Rp6379
ag7
(g11
S'a3\xe3A\xdeU\xb0@'
p6380
tp6381
Rp6382
ag7
(g11
S'X\x15yK\xcfV\xb0@'
p6383
tp6384
Rp6385
ag7
(g11
S'\xf4\xc7\x7f\xb9j]\xb0@'
p6386
tp6387
Rp6388
ag7
(g11
S'\x0c\x0b\xa9\xef\xaf^\xb0@'
p6389
tp6390
Rp6391
ag7
(g11
S'^ \xa2\xd4\x03_\xb0@'
p6392
tp6393
Rp6394
ag7
(g11
S'%\xc3D\xecMf\xb0@'
p6395
tp6396
Rp6397
ag7
(g11
S'8\xd8\x08+\xa9h\xb0@'
p6398
tp6399
Rp6400
ag7
(g11
S'\x19\x8b\xcby\x04j\xb0@'
p6401
tp6402
Rp6403
ag7
(g11
S' \x118\x9dTk\xb0@'
p6404
tp6405
Rp6406
ag7
(g11
S'~\x12\xf59\xdfp\xb0@'
p6407
tp6408
Rp6409
ag7
(g11
S'>\x11:v\xecr\xb0@'
p6410
tp6411
Rp6412
ag7
(g11
S'\xd3J\xb0z\xfet\xb0@'
p6413
tp6414
Rp6415
ag7
(g11
S'\x1bC\rt\xb4v\xb0@'
p6416
tp6417
Rp6418
ag7
(g11
S'\x168\xf8\xfaly\xb0@'
p6419
tp6420
Rp6421
ag7
(g11
S')g\x01\x9d\x9cz\xb0@'
p6422
tp6423
Rp6424
ag7
(g11
S',\xafl\xb5\xb8~\xb0@'
p6425
tp6426
Rp6427
ag7
(g11
S'D%\xe7\x9e\x1e\x83\xb0@'
p6428
tp6429
Rp6430
ag7
(g11
S'\xdb\x16\x85\x17%\x84\xb0@'
p6431
tp6432
Rp6433
ag7
(g11
S'\x97\x12\x99\xd7\xe5\x85\xb0@'
p6434
tp6435
Rp6436
ag7
(g11
S'(\x10\x9c\x0f\x96\x8b\xb0@'
p6437
tp6438
Rp6439
ag7
(g11
S'\x002\xb8@4\x8d\xb0@'
p6440
tp6441
Rp6442
ag7
(g11
S'\xe1xE\xd4\x84\x90\xb0@'
p6443
tp6444
Rp6445
ag7
(g11
S'\x05&h\xb3\x05\x91\xb0@'
p6446
tp6447
Rp6448
ag7
(g11
S'\xa1\xe1\xd6]\x99\x92\xb0@'
p6449
tp6450
Rp6451
ag7
(g11
S'\x97\x14\xc3\xc7k\x97\xb0@'
p6452
tp6453
Rp6454
ag7
(g11
S'\xb7i\n\x0eM\x98\xb0@'
p6455
tp6456
Rp6457
ag7
(g11
S'\n+\xd1\x8fk\x9a\xb0@'
p6458
tp6459
Rp6460
ag7
(g11
S'f)(G\x1b\x9b\xb0@'
p6461
tp6462
Rp6463
ag7
(g11
S'>\x1e~\x8f\x81\xa1\xb0@'
p6464
tp6465
Rp6466
ag7
(g11
S'\x1e#\xe2\xa8Y\xa3\xb0@'
p6467
tp6468
Rp6469
ag7
(g11
S'\xaa\xf2\xe7z8\xa4\xb0@'
p6470
tp6471
Rp6472
ag7
(g11
S'6L\xcb\xf1E\xaa\xb0@'
p6473
tp6474
Rp6475
ag7
(g11
S'\xb3\x7f\x17\xb0\xc7}\xaf@'
p6476
tp6477
Rp6478
ag7
(g11
S'\xe4{B\x85\x9d\x83\xaf@'
p6479
tp6480
Rp6481
ag7
(g11
S'\x0e\xe8\xb2\xa0\xda\x86\xaf@'
p6482
tp6483
Rp6484
ag7
(g11
S'\xf7\xa6\x9f5\t\x88\xaf@'
p6485
tp6486
Rp6487
ag7
(g11
S'\x05\x9du\xf7h\x8d\xaf@'
p6488
tp6489
Rp6490
ag7
(g11
S'\x1a\x87n\xd8\xbd\x95\xaf@'
p6491
tp6492
Rp6493
ag7
(g11
S' \xe4\xb9S\x01\x99\xaf@'
p6494
tp6495
Rp6496
ag7
(g11
S'Gb\xf7)\xd3\xa9\xaf@'
p6497
tp6498
Rp6499
ag7
(g11
S'\xdd\xa2\xa3\xaa\xe9\xac\xaf@'
p6500
tp6501
Rp6502
ag7
(g11
S'\xc8Q\x94:\xc0\xae\xaf@'
p6503
tp6504
Rp6505
ag7
(g11
S'\xa9j\x10u?\xb6\xaf@'
p6506
tp6507
Rp6508
ag7
(g11
S'\xb3;\x1dt\x91\xbe\xaf@'
p6509
tp6510
Rp6511
ag7
(g11
S'\x90}\xd4{[\xc0\xaf@'
p6512
tp6513
Rp6514
ag7
(g11
S'*\x93\x1d\xf1\xc5\xc6\xaf@'
p6515
tp6516
Rp6517
ag7
(g11
S'\xc7P\x9et\xfd\xcf\xaf@'
p6518
tp6519
Rp6520
ag7
(g11
S'\xeb\xa8\x99\x0e\xc0\xd0\xaf@'
p6521
tp6522
Rp6523
ag7
(g11
S">\xc6\xf0'\xa5\xd9\xaf@"
p6524
tp6525
Rp6526
ag7
(g11
S'\xf2A>\xa6\x14\xda\xaf@'
p6527
tp6528
Rp6529
ag7
(g11
S'\x89\xa3\x90\xa2!\xdf\xaf@'
p6530
tp6531
Rp6532
ag7
(g11
S'\xce\xa6p.M\xe1\xaf@'
p6533
tp6534
Rp6535
ag7
(g11
S'AKYm\xde\xe4\xaf@'
p6536
tp6537
Rp6538
ag7
(g11
S'\xe5\xdf\x91\xe9\xa4\xe6\xaf@'
p6539
tp6540
Rp6541
ag7
(g11
S'\x96!\xaf.\xe7\xe9\xaf@'
p6542
tp6543
Rp6544
ag7
(g11
S'\x83\xb5\x8f\xe4\xf8\xec\xaf@'
p6545
tp6546
Rp6547
ag7
(g11
S'\x18\x11\x8a\xf7h\xee\xaf@'
p6548
tp6549
Rp6550
ag7
(g11
S'.wI\xdd\x1b\xf2\xaf@'
p6551
tp6552
Rp6553
ag7
(g11
S'N\x9b\x9d\xc6/\xfb\xaf@'
p6554
tp6555
Rp6556
ag7
(g11
S'\xae;\x12\xbb\x95\xfd\xaf@'
p6557
tp6558
Rp6559
ag7
(g11
S"'\x13iy\x00\x00\xb0@"
p6560
tp6561
Rp6562
ag7
(g11
S'\x14\x94\x9d\x7f \x01\xb0@'
p6563
tp6564
Rp6565
ag7
(g11
S'F\xd2\x86{\xc2\x01\xb0@'
p6566
tp6567
Rp6568
ag7
(g11
S'\xa3\xc0\xa1wd\x03\xb0@'
p6569
tp6570
Rp6571
ag7
(g11
S'\xf8\xa6\x9e\xb0\xe0\x07\xb0@'
p6572
tp6573
Rp6574
ag7
(g11
S'\xa6K5\xedY\x0c\xb0@'
p6575
tp6576
Rp6577
ag7
(g11
S'\x07\xf9\xb2\x7f<\r\xb0@'
p6578
tp6579
Rp6580
ag7
(g11
S'&\x13(\x8f\xbf\x10\xb0@'
p6581
tp6582
Rp6583
ag7
(g11
S'_B\xf9\xf2\xb5\x13\xb0@'
p6584
tp6585
Rp6586
ag7
(g11
S'L\xf9Y\xe1\xa0\x14\xb0@'
p6587
tp6588
Rp6589
ag7
(g11
S'0\xb8\xfbjR\x1f\xb0@'
p6590
tp6591
Rp6592
ag7
(g11
S'H\xb0\xcf\xb3\x8e \xb0@'
p6593
tp6594
Rp6595
ag7
(g11
S"\x81\xca>'\xb7#\xb0@"
p6596
tp6597
Rp6598
ag7
(g11
S'\xd9\xb8\xe7v\xb3$\xb0@'
p6599
tp6600
Rp6601
ag7
(g11
S'&AV\xe3\x1b&\xb0@'
p6602
tp6603
Rp6604
ag7
(g11
S"[Hu\x13]'\xb0@"
p6605
tp6606
Rp6607
ag7
(g11
S'\x01\xe5\tB\xf4)\xb0@'
p6608
tp6609
Rp6610
ag7
(g11
S'O\xba\xada),\xb0@'
p6611
tp6612
Rp6613
ag7
(g11
S'j\xa2\xc4\xc6\xa1.\xb0@'
p6614
tp6615
Rp6616
ag7
(g11
S'\xed!\xf9\xd8\x82/\xb0@'
p6617
tp6618
Rp6619
ag7
(g11
S'\xc9Bp\xba01\xb0@'
p6620
tp6621
Rp6622
ag7
(g11
S'\x0e6(\x84z2\xb0@'
p6623
tp6624
Rp6625
ag7
(g11
S'\xf2\x9c\xa0Y\x134\xb0@'
p6626
tp6627
Rp6628
ag7
(g11
S'%\x86)\x06\xdb8\xb0@'
p6629
tp6630
Rp6631
ag7
(g11
S'\xdd\x05GL!<\xb0@'
p6632
tp6633
Rp6634
ag7
(g11
S'\xd0\xa4\x8dO\x94>\xb0@'
p6635
tp6636
Rp6637
ag7
(g11
S'K\r\xe2cgB\xb0@'
p6638
tp6639
Rp6640
ag7
(g11
S'\x88GO\xde+D\xb0@'
p6641
tp6642
Rp6643
ag7
(g11
S'\x8f@42\xa7E\xb0@'
p6644
tp6645
Rp6646
ag7
(g11
S'\x8f\x99`!\x93H\xb0@'
p6647
tp6648
Rp6649
ag7
(g11
S'\x1as)\x87xJ\xb0@'
p6650
tp6651
Rp6652
ag7
(g11
S'\xc4\x82\xd3\xb1\xf4Q\xb0@'
p6653
tp6654
Rp6655
ag7
(g11
S'\x8ez\xa0\x8e4R\xb0@'
p6656
tp6657
Rp6658
ag7
(g11
S'\xae\xf0\x7f1\xe0U\xb0@'
p6659
tp6660
Rp6661
ag7
(g11
S'v\xdf\x15\x94\xdfV\xb0@'
p6662
tp6663
Rp6664
ag7
(g11
S'\x0cZ\x9e\xd3\x8c]\xb0@'
p6665
tp6666
Rp6667
ag7
(g11
S'\x82\x13\xc54\xb4^\xb0@'
p6668
tp6669
Rp6670
ag7
(g11
S'\xe8\xef-9V\xee\xae@'
p6671
tp6672
Rp6673
ag7
(g11
S'\xc1\xd6\xbdy\xaa\xf4\xae@'
p6674
tp6675
Rp6676
ag7
(g11
S'\x9f\xe3\xed\xb4\xb6\xfe\xae@'
p6677
tp6678
Rp6679
ag7
(g11
S'\xb1(\xf5\xee\xba\x00\xaf@'
p6680
tp6681
Rp6682
ag7
(g11
S'4b\xfc\xf3.\x08\xaf@'
p6683
tp6684
Rp6685
ag7
(g11
S'-\x8c?h\xdf\x0c\xaf@'
p6686
tp6687
Rp6688
ag7
(g11
S'5\xfa\xf2\xb0\xcb\x16\xaf@'
p6689
tp6690
Rp6691
ag7
(g11
S'\xc7glE1&\xaf@'
p6692
tp6693
Rp6694
ag7
(g11
S'_t,R\x9a,\xaf@'
p6695
tp6696
Rp6697
ag7
(g11
S'\xc0\x18\xc0}\r0\xaf@'
p6698
tp6699
Rp6700
ag7
(g11
S'H\xa8\xf7\xcd\x935\xaf@'
p6701
tp6702
Rp6703
ag7
(g11
S'\xbaF\xd2O\xfcA\xaf@'
p6704
tp6705
Rp6706
ag7
(g11
S'\x06\x0e\xe2Y\xb7C\xaf@'
p6707
tp6708
Rp6709
ag7
(g11
S'\x7f\xd8Rx\x89P\xaf@'
p6710
tp6711
Rp6712
ag7
(g11
S'\xda9\x00\x96\xf5X\xaf@'
p6713
tp6714
Rp6715
ag7
(g11
S'N&\xd2P\xb4[\xaf@'
p6716
tp6717
Rp6718
ag7
(g11
S',\x8f\xeb-\xe3c\xaf@'
p6719
tp6720
Rp6721
ag7
(g11
S'\xbc-\x9d\xab7f\xaf@'
p6722
tp6723
Rp6724
ag7
(g11
S'\n\xb8\xe5\x10\xdek\xaf@'
p6725
tp6726
Rp6727
ag7
(g11
S'f\x08\x0f.\x84q\xaf@'
p6728
tp6729
Rp6730
ag7
(g11
S'\xa5\r:\xd6\xf9u\xaf@'
p6731
tp6732
Rp6733
ag7
(g11
S'4Y\xc1f\xac}\xaf@'
p6734
tp6735
Rp6736
ag7
(g11
S'zF\x1f\xdb\x99\x83\xaf@'
p6737
tp6738
Rp6739
ag7
(g11
S',*\xf3\x03/\x87\xaf@'
p6740
tp6741
Rp6742
ag7
(g11
S'\x98\xf5~\xed\x12\x88\xaf@'
p6743
tp6744
Rp6745
ag7
(g11
S'f\x08\xb6\xafz\x8d\xaf@'
p6746
tp6747
Rp6748
ag7
(g11
S'\xb8v2\x7f\xc2\x95\xaf@'
p6749
tp6750
Rp6751
ag7
(g11
S'yo\xd5\xf3\xd0\x98\xaf@'
p6752
tp6753
Rp6754
ag7
(g11
S'"\xb1\xdc\x81\xf0\x9b\xaf@'
p6755
tp6756
Rp6757
ag7
(g11
S'\xe8\xc8!\n\xcc\xa3\xaf@'
p6758
tp6759
Rp6760
ag7
(g11
S'\xcd\x80r\xf6\xd4\xa9\xaf@'
p6761
tp6762
Rp6763
ag7
(g11
S'\x81T\x84\xd2\xe4\xaa\xaf@'
p6764
tp6765
Rp6766
ag7
(g11
S'\x84\x00\xacS\xfb\xac\xaf@'
p6767
tp6768
Rp6769
ag7
(g11
S'^]I\x1bC\xb6\xaf@'
p6770
tp6771
Rp6772
ag7
(g11
S'\x13\xcb{]\xbb\xbe\xaf@'
p6773
tp6774
Rp6775
ag7
(g11
S'\xf5\xc6\x06\x9ck\xc0\xaf@'
p6776
tp6777
Rp6778
ag7
(g11
S'\xa7r\xc3\x94\xbe\xc6\xaf@'
p6779
tp6780
Rp6781
ag7
(g11
S'0\xed ;2\xca\xaf@'
p6782
tp6783
Rp6784
ag7
(g11
S'\x15\xd5\x84Y\xff\xcf\xaf@'
p6785
tp6786
Rp6787
ag7
(g11
S'\x92\xae\x870\xc1\xd0\xaf@'
p6788
tp6789
Rp6790
ag7
(g11
S'N\xe5\x0fB\xa7\xd9\xaf@'
p6791
tp6792
Rp6793
ag7
(g11
S'\x15\xcd\rV\x0b\xda\xaf@'
p6794
tp6795
Rp6796
ag7
(g11
S's\xe6\xe9W"\xdf\xaf@'
p6797
tp6798
Rp6799
ag7
(g11
S'\x0c\x00\xf9cN\xe1\xaf@'
p6800
tp6801
Rp6802
ag7
(g11
S'<\xdb\xf8\xc7\xc4\xe4\xaf@'
p6803
tp6804
Rp6805
ag7
(g11
S'\xaayS\xa1\xb6\xe6\xaf@'
p6806
tp6807
Rp6808
ag7
(g11
S'J\xe5\x00\xad\xda\xe9\xaf@'
p6809
tp6810
Rp6811
ag7
(g11
S'\xb0\x9fw\x94\r\xed\xaf@'
p6812
tp6813
Rp6814
ag7
(g11
S'\x0c6\xf9\xcd}\xee\xaf@'
p6815
tp6816
Rp6817
ag7
(g11
S'9\xb7\xde\x8f1\xf2\xaf@'
p6818
tp6819
Rp6820
ag7
(g11
S'\x11l\x9f\x7f9\xfb\xaf@'
p6821
tp6822
Rp6823
ag7
(g11
S'\x14Ogu\x8f\xfd\xaf@'
p6824
tp6825
Rp6826
ag7
(g11
S'<\xcd\xfdZ\xf7\xff\xaf@'
p6827
tp6828
Rp6829
ag7
(g11
S'\xeer5\xb2$\x01\xb0@'
p6830
tp6831
Rp6832
ag7
(g11
S'\xd7;\xc7\x1e\xc3\x01\xb0@'
p6833
tp6834
Rp6835
ag7
(g11
S"l\x84'\xfav\x04\xb0@"
p6836
tp6837
Rp6838
ag7
(g11
S'\xf5`\xd1\xc3\xe2\x07\xb0@'
p6839
tp6840
Rp6841
ag7
(g11
S'\xa9\x0cpW\xef\n\xb0@'
p6842
tp6843
Rp6844
ag7
(g11
S'v1D\x10\xb9\x0b\xb0@'
p6845
tp6846
Rp6847
ag7
(g11
S'\xa2\x90\x9b<M\x0c\xb0@'
p6848
tp6849
Rp6850
ag7
(g11
S'\xc2\x81\x97\xc4)\r\xb0@'
p6851
tp6852
Rp6853
ag7
(g11
S'\xc2\x1bAJ\xc3\x0e\xb0@'
p6854
tp6855
Rp6856
ag7
(g11
S'\xe7=\xf4:\xdd\x10\xb0@'
p6857
tp6858
Rp6859
as.