(lp0
cnumpy.core.multiarray
scalar
p1
(cnumpy
dtype
p2
(S'f8'
p3
I0
I1
tp4
Rp5
(I3
S'<'
p6
NNNI-1
I-1
I0
tp7
bS'%I\x92\x1a\x91\xe2P?'
p8
tp9
Rp10
ag1
(g5
S's\n^\xa0\x84\xe2P?'
p11
tp12
Rp13
ag1
(g5
S's\n^\xa0\x84\xe2P?'
p14
tp15
Rp16
a.