(lp0
cnumpy.core.multiarray
scalar
p1
(cnumpy
dtype
p2
(S'f8'
p3
I0
I1
tp4
Rp5
(I3
S'<'
p6
NNNI-1
I-1
I0
tp7
bS'^Co\x8b6\xa0J?'
p8
tp9
Rp10
ag1
(g5
S'\xe5\x0f\xb2\xb0\x1c\xa0J?'
p11
tp12
Rp13
ag1
(g5
S'\xe5\x0f\xb2\xb0\x1c\xa0J?'
p14
tp15
Rp16
a.