(lp0
cnumpy.core.multiarray
scalar
p1
(cnumpy
dtype
p2
(S'f8'
p3
I0
I1
tp4
Rp5
(I3
S'<'
p6
NNNI-1
I-1
I0
tp7
bS'b\xb8\x12Y\\&T?'
p8
tp9
Rp10
ag1
(g5
S'tT\x17\xab9&T?'
p11
tp12
Rp13
ag1
(g5
S'tT\x17\xab9&T?'
p14
tp15
Rp16
a.