(lp0
cnumpy.core.multiarray
scalar
p1
(cnumpy
dtype
p2
(S'f8'
p3
I0
I1
tp4
Rp5
(I3
S'<'
p6
NNNI-1
I-1
I0
tp7
bS'lts\xe7-\xa0b?'
p8
tp9
Rp10
ag1
(g5
S'd\x81\x05"h\xa0b?'
p11
tp12
Rp13
ag1
(g5
S'd\x81\x05"h\xa0b?'
p14
tp15
Rp16
a.