(lp0
cnumpy.core.multiarray
scalar
p1
(cnumpy
dtype
p2
(S'f8'
p3
I0
I1
tp4
Rp5
(I3
S'<'
p6
NNNI-1
I-1
I0
tp7
bS'\xdd\xb9v\x08#\xd1R?'
p8
tp9
Rp10
ag1
(g5
S'\xc5X\xc4\xd7\x1b\xd1R?'
p11
tp12
Rp13
ag1
(g5
S'\xc5X\xc4\xd7\x1b\xd1R?'
p14
tp15
Rp16
a.