(lp0
cnumpy.core.multiarray
scalar
p1
(cnumpy
dtype
p2
(S'f8'
p3
I0
I1
tp4
Rp5
(I3
S'<'
p6
NNNI-1
I-1
I0
tp7
bS'tw\x02\x87&_c?'
p8
tp9
Rp10
ag1
(g5
S'^\xbd\xc0%\xf9{^?'
p11
tp12
Rp13
ag1
(g5
S'\xf6j\x01\xa0\x84\x04Z?'
p14
tp15
Rp16
ag1
(g5
S'HI\xc6\\\x88\xcaR?'
p17
tp18
Rp19
ag1
(g5
S'HI\xc6\\\x88\xcaR?'
p20
tp21
Rp22
a.