(lp0
cnumpy.core.multiarray
scalar
p1
(cnumpy
dtype
p2
(S'f8'
p3
I0
I1
tp4
Rp5
(I3
S'<'
p6
NNNI-1
I-1
I0
tp7
bS' \x04i\r]\xa4p?'
p8
tp9
Rp10
ag1
(g5
S'\xa0@\xf6\x1f\xde\xbff?'
p11
tp12
Rp13
ag1
(g5
S'\x02\x13\xaa\xb4\x06\xd8`?'
p14
tp15
Rp16
ag1
(g5
S'\x85\x95n\xaf\xc3\x9a_?'
p17
tp18
Rp19
ag1
(g5
S' :2\xa3;f_?'
p20
tp21
Rp22
ag1
(g5
S'{^=t\xc1V_?'
p23
tp24
Rp25
ag1
(g5
S'\xcd0\x13\x15\x1eR_?'
p26
tp27
Rp28
ag1
(g5
S'U?8\x90\xb7P_?'
p29
tp30
Rp31
ag1
(g5
S'E\xd0\xd6\x97LP_?'
p32
tp33
Rp34
a.