(lp0
cnumpy.core.multiarray
scalar
p1
(cnumpy
dtype
p2
(S'f8'
p3
I0
I1
tp4
Rp5
(I3
S'<'
p6
NNNI-1
I-1
I0
tp7
bS'd\xf5\xdb\xcf\xb2dl?'
p8
tp9
Rp10
ag1
(g5
S'\x90\xbcd+n~n?'
p11
tp12
Rp13
ag1
(g5
S'\x9b\xaf\xcbc\xe6"i?'
p14
tp15
Rp16
ag1
(g5
S'U<%\xfe\x9f\xa8c?'
p17
tp18
Rp19
ag1
(g5
S'E:\x7f`\xf8\xfe^?'
p20
tp21
Rp22
ag1
(g5
S'\x7f\xf9\x91|\x91\xb1N?'
p23
tp24
Rp25
ag1
(g5
S'\x7f\xf9\x91|\x91\xb1N?'
p26
tp27
Rp28
a.