(lp0
cnumpy.core.multiarray
scalar
p1
(cnumpy
dtype
p2
(S'f8'
p3
I0
I1
tp4
Rp5
(I3
S'<'
p6
NNNI-1
I-1
I0
tp7
bS'\xd5\xd5\x9c\xf7I\xff\x82?'
p8
tp9
Rp10
ag1
(g5
S'A\xbd\x1f\xb9\xe3\xa4\x80?'
p11
tp12
Rp13
a.