(lp0
cnumpy.core.multiarray
scalar
p1
(cnumpy
dtype
p2
(S'f8'
p3
I0
I1
tp4
Rp5
(I3
S'<'
p6
NNNI-1
I-1
I0
tp7
bS'sU6\xe3\x13\x0c\x84?'
p8
tp9
Rp10
ag1
(g5
S'\xb9?\x1e\xfe:\x01U?'
p11
tp12
Rp13
ag1
(g5
S'\xb9?\x1e\xfe:\x01U?'
p14
tp15
Rp16
a.