(lp0
cnumpy.core.multiarray
scalar
p1
(cnumpy
dtype
p2
(S'f8'
p3
I0
I1
tp4
Rp5
(I3
S'<'
p6
NNNI-1
I-1
I0
tp7
bS'\xea\xc7\x1c\xa6f\xa3\x8d?'
p8
tp9
Rp10
ag1
(g5
S'\xbc\x176\xbdID\x8f?'
p11
tp12
Rp13
a.