(lp0
cnumpy.core.multiarray
scalar
p1
(cnumpy
dtype
p2
(S'f8'
p3
I0
I1
tp4
Rp5
(I3
S'<'
p6
NNNI-1
I-1
I0
tp7
bS'X\x18Mz\x06\x17\x89?'
p8
tp9
Rp10
ag1
(g5
S'&\xc06\x7fKc\x81?'
p11
tp12
Rp13
ag1
(g5
S'\xb0\x13\xc9J\x0cQd?'
p14
tp15
Rp16
ag1
(g5
S'\xb0\x13\xc9J\x0cQd?'
p17
tp18
Rp19
a.