(lp0
cnumpy.core.multiarray
scalar
p1
(cnumpy
dtype
p2
(S'f8'
p3
I0
I1
tp4
Rp5
(I3
S'<'
p6
NNNI-1
I-1
I0
tp7
bS'L\r\x98\x12\x0f\xeay?'
p8
tp9
Rp10
ag1
(g5
S'EI_\xc00W|?'
p11
tp12
Rp13
ag1
(g5
S'r.;97\xf6|?'
p14
tp15
Rp16
ag1
(g5
S'\x7fZf\x10\x94\xa7{?'
p17
tp18
Rp19
ag1
(g5
S'P\xc1\xd2=\xbb\xc2z?'
p20
tp21
Rp22
ag1
(g5
S'\xa9P\xc4\x13\x81\x14z?'
p23
tp24
Rp25
ag1
(g5
S'\xecG\x85\xd2\x14\x19y?'
p26
tp27
Rp28
ag1
(g5
S'\x19\xb3 D#\x19y?'
p29
tp30
Rp31
a.