(lp0
cnumpy.core.multiarray
scalar
p1
(cnumpy
dtype
p2
(S'f8'
p3
I0
I1
tp4
Rp5
(I3
S'<'
p6
NNNI-1
I-1
I0
tp7
bS'4\x11>\xb3\xc0\xa9c?'
p8
tp9
Rp10
ag1
(g5
S'\xb8\xb1V\x0f\xb5|S?'
p11
tp12
Rp13
ag1
(g5
S'5\xae\xab\xf8b\xc3Q?'
p14
tp15
Rp16
ag1
(g5
S'5\xae\xab\xf8b\xc3Q?'
p17
tp18
Rp19
a.