(lp0
(lp1
F5698.294609
aF5700.459069
aF5702.651464
aF5704.376668
aF5707.103137
aF5717.170806
aF5725.388111
aF5727.710012
aF5736.029422
aF5739.520188
aF5741.171037
aF5741.829296
aF5742.083972
aF5748.324266
aF5748.741222
aF5749.389072
aF5753.026927
aF5763.528456
aF5767.778495
aF5768.181074
aF5771.759798
aF5776.167328
aF5777.400224
aF5783.53795
aF5789.644814
aF5790.402119
aF5792.430723
aF5796.068933
aF5797.319784
aF5798.478775
aF5800.829807
aF5802.081595
aF5805.700655
aF5808.656496
aF5812.972562
aF5815.421655
aF5818.449035
aF5819.602612
aF5822.792943
aF5828.075657
aF5829.11075
aF5830.827386
aF5832.370428
aF5834.264304
aF5838.949666
aF5839.850998
aF5840.64
aF5843.804948
aF5845.919546
aF5852.680944
aF5853.474514
aF5854.120429
aF5860.31081
aF5863.719119
aF5866.812191
aF5868.374378
aF5869.851186
aF5871.182407
aF5872.602399
aF5874.350625
aF5881.907559
aF5882.624429
aF5885.701097
aF5886.531229
aF5891.45079
aF5894.700104
aF5895.281404
aF5895.924028
aF5896.363174
aF5899.844054
aF5902.601574
aF5905.175364
aF5905.570764
aF5911.230285
aa(lp2
cnumpy.core.multiarray
scalar
p3
(cnumpy
dtype
p4
(S'f8'
p5
I0
I1
tp6
Rp7
(I3
S'<'
p8
NNNI-1
I-1
I0
tp9
bS'\xcc\x98S.\xfd\xc9A@'
p10
tp11
Rp12
ag3
(g7
S'G"q\xaf\t|e@'
p13
tp14
Rp15
ag3
(g7
S'Z=[k\x8a\x1f+@'
p16
tp17
Rp18
ag3
(g7
S'\xb1X\x0e6c\xffb@'
p19
tp20
Rp21
ag3
(g7
S'\xbc\xb8(\x86\x9a\xd94@'
p22
tp23
Rp24
ag3
(g7
S'\xc6!a\xe7\xd2;Q@'
p25
tp26
Rp27
ag3
(g7
S'Z\x16\xf3\xc4 \xe2=@'
p28
tp29
Rp30
ag3
(g7
S'a\x83\xee\x17\xa3\x1a_@'
p31
tp32
Rp33
ag3
(g7
S')\x8a\xbe\xbea\r7@'
p34
tp35
Rp36
ag3
(g7
S'\xfa\xeb\xf0\xf8\xc4\xa0&@'
p37
tp38
Rp39
ag3
(g7
S'\xc5\x0f,\xad\xc73\x05@'
p40
tp41
Rp42
ag3
(g7
S'\xd6\x90O\x0co\x06Q@'
p43
tp44
Rp45
ag3
(g7
S'\xd4b:_\x0b\x11D@'
p46
tp47
Rp48
ag3
(g7
S'j5\xa6\xe2\xb7<A@'
p49
tp50
Rp51
ag3
(g7
S'\xc5\xa8\xa3\x8b&l\x14@'
p52
tp53
Rp54
ag3
(g7
S'\xd3\xea\t|@>\xd4?'
p55
tp56
Rp57
ag3
(g7
S'\xf3]\xc7C\xac}+@'
p58
tp59
Rp60
ag3
(g7
S'\xb5\xadx\xf10\rQ@'
p61
tp62
Rp63
ag3
(g7
S'\xd8\x80{\x8f\xb1\x99P@'
p64
tp65
Rp66
ag3
(g7
S'\x9a[\xf1c\xdd\x12C@'
p67
tp68
Rp69
ag3
(g7
S'\xdb\xbe\xd1\xec\x9b\xf2H@'
p70
tp71
Rp72
ag3
(g7
S'e\xff\xbd\x9e\x8c;\\@'
p73
tp74
Rp75
ag3
(g7
S"a'\xbf\xcb;yG@"
p76
tp77
Rp78
ag3
(g7
S"Q\x03i',oT@"
p79
tp80
Rp81
ag3
(g7
S'&\xff\x0f\xf7y#T@'
p82
tp83
Rp84
ag3
(g7
S'HI\x89\xffB\xedE@'
p85
tp86
Rp87
ag3
(g7
S'\xc8\xa1\x11\xfcp\xdaK@'
p88
tp89
Rp90
ag3
(g7
S'\xae,w%WW>@'
p91
tp92
Rp93
ag3
(g7
S'\x7f(\x83\x11\xa0\xebH@'
p94
tp95
Rp96
ag3
(g7
S'\xca~\xac1^\x00\x00@'
p97
tp98
Rp99
ag3
(g7
S'\xff\x91\xc2+J\x836@'
p100
tp101
Rp102
ag3
(g7
S'\xe4q\x03\xb7\x19\xdaF@'
p103
tp104
Rp105
ag3
(g7
S'19;\xe2t\xdeD@'
p106
tp107
Rp108
ag3
(g7
S'(1\xbfA\xd0\xf1U@'
p109
tp110
Rp111
ag3
(g7
S'I\x8d\x15\xe6\xe9\xc41@'
p112
tp113
Rp114
ag3
(g7
S'\x9dJ\x91\x14|\x8a@@'
p115
tp116
Rp117
ag3
(g7
S'\xe6z\xc5$\x0fq?@'
p118
tp119
Rp120
ag3
(g7
S'\x13AN\x80\x0cwP@'
p121
tp122
Rp123
ag3
(g7
S'\x0frw\xa1\xbb\xe5@@'
p124
tp125
Rp126
ag3
(g7
S'`D\n\xd9\x0b^k@'
p127
tp128
Rp129
ag3
(g7
S'{\x9b\xc2\x80\x7f\x7f\x80@'
p130
tp131
Rp132
ag3
(g7
S'\xc8Ol\x99\x9b<\xfe?'
p133
tp134
Rp135
ag3
(g7
S'\xe1\xd1\xad\xf1\xde\xa5(@'
p136
tp137
Rp138
ag3
(g7
S'\xe4\x81E!\x1f\x82O@'
p139
tp140
Rp141
ag3
(g7
S'.:?:M\xb8c@'
p142
tp143
Rp144
ag3
(g7
S'\x7fn\xe3$\xa9\xcbJ@'
p145
tp146
Rp147
ag3
(g7
S'\x92:\xf8Z\xd9\xf6?@'
p148
tp149
Rp150
ag3
(g7
S'\x14Zl\xf2\xec\x86b@'
p151
tp152
Rp153
ag3
(g7
S'1@\xce\x8e>\xb3a@'
p154
tp155
Rp156
ag3
(g7
S'\xa6P\xef\xe1g\xcfE@'
p157
tp158
Rp159
ag3
(g7
S'\x06\xfa\xf3\x07\xf83T@'
p160
tp161
Rp162
ag3
(g7
S'_\xffk[\xa2\xebL@'
p163
tp164
Rp165
ag3
(g7
S'=i\xd2\x19\x07\xe4R@'
p166
tp167
Rp168
ag3
(g7
S'\x0cTL\xd5\xd8)U@'
p169
tp170
Rp171
ag3
(g7
S'^\xaf\xf1\xa4W\x08R@'
p172
tp173
Rp174
ag3
(g7
S'%\xf2\x86\x0f\x85"C@'
p175
tp176
Rp177
ag3
(g7
S'8\x04\x1f\xd6\xaa\x9ac@'
p178
tp179
Rp180
ag3
(g7
S'\x81$\x002\t\x0e\x19@'
p181
tp182
Rp183
ag3
(g7
S'#\x16\xff\xda\xadSF@'
p184
tp185
Rp186
ag3
(g7
S'\xa1\xd6+rb-G@'
p187
tp188
Rp189
ag3
(g7
S'p\x8b]\x01\xed\x13J@'
p190
tp191
Rp192
ag3
(g7
S'p"}!W\xb0B@'
p193
tp194
Rp195
ag3
(g7
S'\x13X\x9f|g\t#@'
p196
tp197
Rp198
ag3
(g7
S'V\x1c\x97:O\xd6\x03@'
p199
tp200
Rp201
ag3
(g7
S'\x1e\xff\x1c\xa7\xf0\xcaQ@'
p202
tp203
Rp204
ag3
(g7
S'g\xe2\x0f\x0bsSf@'
p205
tp206
Rp207
ag3
(g7
S'\xd0\xf1.\xb6\xf6\x93O@'
p208
tp209
Rp210
ag3
(g7
S'\x8f\xbe\x1a\xd3t\xb0G@'
p211
tp212
Rp213
ag3
(g7
S'\x98>\xd30\xa5\xc2T@'
p214
tp215
Rp216
ag3
(g7
S'\x98\x88z\x8a.\xcfk@'
p217
tp218
Rp219
ag3
(g7
S'T\xb6\x18\xff_(B@'
p220
tp221
Rp222
ag3
(g7
S'\xc2\xa8\x91\x10\xd79\x89@'
p223
tp224
Rp225
ag3
(g7
S'\xc1\xfb\\\x97y_\xa9?'
p226
tp227
Rp228
ag3
(g7
S'h{\xe7\xcb\x0e=s@'
p229
tp230
Rp231
aa.