(lp0
(lp1
F4030.292633
aF4030.842436
aF4032.595736
acnumpy.core.multiarray
scalar
p2
(cnumpy
dtype
p3
(S'f8'
p4
I0
I1
tp5
Rp6
(I3
S'<'
p7
NNNI-1
I-1
I0
tp8
bS'\x87=\x1c/P\x84\xaf@'
p9
tp10
Rp11
aF4034.246283
aF4035.460437
aF4036.047864
aF4036.565449
aF4038.804857
aF4041.203396
ag2
(g6
S'<e\x13Z\x8b\x92\xaf@'
p12
tp13
Rp14
aF4043.130267
aF4043.395046
aF4044.418042
aF4045.965436
aF4049.944572
aF4050.887229
aF4054.302003
aF4054.526327
aF4057.940889
aF4059.252861
aF4060.061789
aF4061.625023
aF4063.407073
aF4064.331561
aF4067.450978
aF4069.20192
aF4069.76085
aF4070.23816
aF4072.38482
aF4074.641923
aF4075.503004
aF4075.907164
aF4076.628745
aF4076.943344
aF4083.468911
aF4085.256213
aF4085.433751
aF4086.520592
aF4089.137621
aF4093.392143
aF4093.671618
aF4094.747403
aF4096.076549
aF4097.747286
aF4098.933009
aF4099.993311
aF4100.341269
aF4102.617755
aF4104.381577
aF4104.837546
aF4107.05032
aF4108.419732
aF4109.323634
aF4115.758823
aF4116.713432
aF4128.640145
aF4130.324641
aF4131.002095
aF4134.323895
aF4135.479805
aF4138.040573
aF4142.700927
aF4147.540441
aF4148.181686
aF4151.145471
aF4152.916567
aF4156.085726
aF4159.153885
aF4161.738871
aF4162.508771
aF4165.766346
aF4167.865471
aF4168.046939
aF4168.63406
aF4170.53309
aF4170.784682
aF4171.341017
aF4172.625838
aF4174.439626
aF4178.059409
aF4178.848605
aF4180.721948
aF4181.883406
aF4185.468315
aF4185.805041
aF4187.140573
aa(lp15
g2
(g6
S'\xb6\x16d\xa7\xac\x18Z@'
p16
tp17
Rp18
ag2
(g6
S'\x1c\xeb>\x97\x96$,@'
p19
tp20
Rp21
ag2
(g6
S'\x06\\mtC\xc3o@'
p22
tp23
Rp24
ag2
(g6
S'\t\xee\xb0\x04\x93\x0c\xba@'
p25
tp26
Rp27
ag2
(g6
S'\xa2\xde\xa8\xdd\xea\xddw@'
p28
tp29
Rp30
ag2
(g6
S'Fi\xe7\xc6\xb9\x94e@'
p31
tp32
Rp33
ag2
(g6
S'#aG@XYY@'
p34
tp35
Rp36
ag2
(g6
S'\xc5\x97\x04n8\xba\x10@'
p37
tp38
Rp39
ag2
(g6
S'Z\x86fk\x13!\x80@'
p40
tp41
Rp42
ag2
(g6
S'\xc6\x913y\xeal\xa2@'
p43
tp44
Rp45
ag2
(g6
S'\x97\x8e!\xc0}\xf1\xb3@'
p46
tp47
Rp48
ag2
(g6
S'\xf9\x9c\x15I\xe9)\x82@'
p49
tp50
Rp51
ag2
(g6
S';1\x92\x03Bkz@'
p52
tp53
Rp54
ag2
(g6
S'J\xe0\xbfI\x16zG@'
p55
tp56
Rp57
ag2
(g6
S'I\x1dJ\xbf\x9als@'
p58
tp59
Rp60
ag2
(g6
S'\x97N\xa6\xf3\xfdy\x7f@'
p61
tp62
Rp63
ag2
(g6
S'M\x9aA\xff\x0f\xf6h@'
p64
tp65
Rp66
ag2
(g6
S'/\xc6&\xaf\xd1UR@'
p67
tp68
Rp69
ag2
(g6
S'RG\xd3T\x94]O@'
p70
tp71
Rp72
ag2
(g6
S'\xc8\x1ac\x99\x8f\xd9|@'
p73
tp74
Rp75
ag2
(g6
S'D\xd92\x00`\xd4F@'
p76
tp77
Rp78
ag2
(g6
S';\x902!\xed\x99\x87@'
p79
tp80
Rp81
ag2
(g6
S'\xfd\\\xf6@\x1f\xf1~@'
p82
tp83
Rp84
ag2
(g6
S'\xc2\x1e\x14\xe8\xc6\xdb<@'
p85
tp86
Rp87
ag2
(g6
S'}\x8c\x97\xea\x0f\xb7Y@'
p88
tp89
Rp90
ag2
(g6
S'\x81\x878\xed\xbd\x1eO@'
p91
tp92
Rp93
ag2
(g6
S'\xd7\x0c\xc9e\x06\x85\x1d@'
p94
tp95
Rp96
ag2
(g6
S'\xda\xc7(\x86\x9a\x8fi@'
p97
tp98
Rp99
ag2
(g6
S'L\xa1R\x81L\x92k@'
p100
tp101
Rp102
ag2
(g6
S's*Tj\x04\xc1R@'
p103
tp104
Rp105
ag2
(g6
S'\xe3\xc7mr\xc891@'
p106
tp107
Rp108
ag2
(g6
S'\xdfA\xdd\xd6\xef=J@'
p109
tp110
Rp111
ag2
(g6
S'\x14y\xe6\xab\x0by%@'
p112
tp113
Rp114
ag2
(g6
S'\xac\xfba\xdd\xf6+U@'
p115
tp116
Rp117
ag2
(g6
S'\xff\x87\xaa\xd2\x9b-[@'
p118
tp119
Rp120
ag2
(g6
S'\xac\xd2+\xc9\xbd\x87&@'
p121
tp122
Rp123
ag2
(g6
S'T\xef\x0b\x93\x06WE@'
p124
tp125
Rp126
ag2
(g6
S'\x86qV\x86\xb5\xac@@'
p127
tp128
Rp129
ag2
(g6
S'\n\n2\xc9\x15\x8f*@'
p130
tp131
Rp132
ag2
(g6
S'V\xd3\x1b|1\x90E@'
p133
tp134
Rp135
ag2
(g6
S'\x10s\x86\xcd\x12Ul@'
p136
tp137
Rp138
ag2
(g6
S'\xdd\x8f\xe1|C-\n@'
p139
tp140
Rp141
ag2
(g6
S'E\xa7^g\xb3\xdcQ@'
p142
tp143
Rp144
ag2
(g6
S'g\xedE\xc1\xb9\xc7T@'
p145
tp146
Rp147
ag2
(g6
S'g\x1b\x87_Q\x0c1@'
p148
tp149
Rp150
ag2
(g6
S'u\x91r\xf3\xfcVB@'
p151
tp152
Rp153
ag2
(g6
S'\xef\xd9o\x18\xb5.o@'
p154
tp155
Rp156
ag2
(g6
S'DYa]\\\xfdB@'
p157
tp158
Rp159
ag2
(g6
S'\xa2\xe0\xcb\x16\x10p@@'
p160
tp161
Rp162
ag2
(g6
S'F\xfe%&\xc1P1@'
p163
tp164
Rp165
ag2
(g6
S'\xd0xm \x99 ,@'
p166
tp167
Rp168
ag2
(g6
S'W\xe0\x18\xda\xd4zD@'
p169
tp170
Rp171
ag2
(g6
S'W\x80\x864\x81\x16!@'
p172
tp173
Rp174
ag2
(g6
S'+~Y\xf0\xa0\xd7D@'
p175
tp176
Rp177
ag2
(g6
S'\xdb\x91\xdeP\xc0\xa76@'
p178
tp179
Rp180
ag2
(g6
S'\xf0\x0b\xacE\x8e\x10C@'
p181
tp182
Rp183
ag2
(g6
S')\xeb\xee/\x99\xb2E@'
p184
tp185
Rp186
ag2
(g6
S'\x97\xf4~\x8f\xbc\x8f\r@'
p187
tp188
Rp189
ag2
(g6
S'\x8f\xf6\xff\xc2\x0ce#@'
p190
tp191
Rp192
ag2
(g6
S'\x1eT\x10%<\xa5J@'
p193
tp194
Rp195
ag2
(g6
S'I\x8e\x9d-\xd9\x9eL@'
p196
tp197
Rp198
ag2
(g6
S'\xf5)\x9dI_M?@'
p199
tp200
Rp201
ag2
(g6
S't\x9f$\x96\x9f\xf6&@'
p202
tp203
Rp204
ag2
(g6
S'\xd1\xc64\xf6\x86qu@'
p205
tp206
Rp207
ag2
(g6
S'\xeb\x10\xc64*\xe7S@'
p208
tp209
Rp210
ag2
(g6
S'?\x8a\x86\x16\xe3\xcb @'
p211
tp212
Rp213
ag2
(g6
S"'fci+\x8f\\@"
p214
tp215
Rp216
ag2
(g6
S'\xb2o~F\xd0\xb9F@'
p217
tp218
Rp219
ag2
(g6
S']E\xf3\x9b\x1fKe@'
p220
tp221
Rp222
ag2
(g6
S'\xe9\xed\xcb5\xd4lP@'
p223
tp224
Rp225
ag2
(g6
S'\xa2\xb0\xbcj\x04\xeeb@'
p226
tp227
Rp228
ag2
(g6
S'\x13\x91n5\xc4^X@'
p229
tp230
Rp231
ag2
(g6
S'%0\x87\x0cOEa@'
p232
tp233
Rp234
ag2
(g6
S'\x82\xaf\x9d\xad\xd4/d@'
p235
tp236
Rp237
ag2
(g6
S'{\xb6\x17\xbf\xa5\xa9"@'
p238
tp239
Rp240
ag2
(g6
S'\x127I\xaa2\xe2U@'
p241
tp242
Rp243
ag2
(g6
S'\xfe\xf6=\xfd\xf2\x0f`@'
p244
tp245
Rp246
ag2
(g6
S'\x1b\x11q\xc6\xd4\xa2F@'
p247
tp248
Rp249
ag2
(g6
S'}\xe3S\xfa\x8c\x18i@'
p250
tp251
Rp252
ag2
(g6
S'@\x0c\x0e\x8c=\x0eg@'
p253
tp254
Rp255
ag2
(g6
S'B\xf2\xa2\xbd\xbc=,@'
p256
tp257
Rp258
ag2
(g6
S'\x17\xc0\xbc\xb0\xfeb=@'
p259
tp260
Rp261
ag2
(g6
S'\x05\xe9\x93eM\xf7l@'
p262
tp263
Rp264
ag2
(g6
S'\x9fzg=E\xe73@'
p265
tp266
Rp267
ag2
(g6
S'%>\xe4nV6\x84@'
p268
tp269
Rp270
ag2
(g6
S'[\xb3\xd4\xbd\xfb1\x86@'
p271
tp272
Rp273
ag2
(g6
S'b\xf1\\l\xb9\xfdI@'
p274
tp275
Rp276
aa.