(lp0
(lp1
F9266.206929
aF9276.273096
aF9279.70886
aF9289.562352
aF9307.895531
aF9334.759323
aF9344.802806
aF9383.272149
aF9388.930727
aF9409.348747
aF9431.599536
aF9467.195287
aF9470.681818
aF9495.497829
aF9497.189003
aF9505.392901
aF9508.450631
aF9561.245166
aF9601.925116
aa(lp2
cnumpy.core.multiarray
scalar
p3
(cnumpy
dtype
p4
(S'f8'
p5
I0
I1
tp6
Rp7
(I3
S'<'
p8
NNNI-1
I-1
I0
tp9
bS'\x05XD\xb3)9o@'
p10
tp11
Rp12
ag3
(g7
S'"[\xc3\xf6n\xda`@'
p13
tp14
Rp15
ag3
(g7
S'\x0e\xe8?[b\xe1\x84@'
p16
tp17
Rp18
ag3
(g7
S'\xfag\xe0\xaa\xe7Ii@'
p19
tp20
Rp21
ag3
(g7
S'\x01\x8d\x02\x89%=I@'
p22
tp23
Rp24
ag3
(g7
S':K\xe2\x1c\xa0\xe7a@'
p25
tp26
Rp27
ag3
(g7
S'\xe6\x06\xe9\xd6T^p@'
p28
tp29
Rp30
ag3
(g7
S'X\x86\x1c=\x13\x17Y@'
p31
tp32
Rp33
ag3
(g7
S'\xf5\x03\x0b!" \x7f@'
p34
tp35
Rp36
ag3
(g7
S'\xec^\x03]\x92\x99s@'
p37
tp38
Rp39
ag3
(g7
S'0\xf5K\nW\x8dh@'
p40
tp41
Rp42
ag3
(g7
S'\xa2\x92\xa2\x16\x92"\'@'
p43
tp44
Rp45
ag3
(g7
S',\xa7-\xa6\xb1\xe5q@'
p46
tp47
Rp48
ag3
(g7
S'\x0e$j\xae\xbc\xc3r@'
p49
tp50
Rp51
ag3
(g7
S'\xdaI\x1f\xcdQ\xe9j@'
p52
tp53
Rp54
ag3
(g7
S'I\x17\xba0\xbcxI@'
p55
tp56
Rp57
ag3
(g7
S'b\x97\x9e\xabB\xe7\x0c@'
p58
tp59
Rp60
ag3
(g7
S'B\xc0\x8b\xbe.\xe1`@'
p61
tp62
Rp63
ag3
(g7
S'\xbe\xb6\x97\xa5$7A@'
p64
tp65
Rp66
aa.