(lp0
(lp1
F6522.04242
aF6551.70562
aF6558.875783
aF6564.444993
aF6577.656281
aF6584.612923
aF6593.462049
aF6596.113003
aF6598.675206
aF6604.85343
aF6605.416955
aF6618.164963
aF6619.945897
aF6632.083536
aF6638.221029
aF6638.911903
aF6639.740761
aF6658.677188
aF6660.675984
aF6664.050878
aF6666.358628
aF6674.696969
aF6678.706868
aF6683.367225
aF6684.293258
aF6684.788419
aF6697.712496
aF6698.874332
aF6711.252013
aF6713.969781
aF6722.890153
aF6728.118304
aF6733.748613
aF6738.18018
aF6753.659461
aF6756.163468
aF6766.612079
aF6778.313276
aF6780.125504
aa(lp2
cnumpy.core.multiarray
scalar
p3
(cnumpy
dtype
p4
(S'f8'
p5
I0
I1
tp6
Rp7
(I3
S'<'
p8
NNNI-1
I-1
I0
tp9
bS'\xa4\xe5\xaeK\xc4\r\x1e@'
p10
tp11
Rp12
ag3
(g7
S'\xbb\xb4\xc4\xa2\xcc\x85;@'
p13
tp14
Rp15
ag3
(g7
S'\xf4\xde<({\xf6!@'
p16
tp17
Rp18
ag3
(g7
S'\xd4=\x17\xfc\xd7\xd7T@'
p19
tp20
Rp21
ag3
(g7
S'a5\xda\x1d`\xb8S@'
p22
tp23
Rp24
ag3
(g7
S'\xad\xc3Vu\x1d*V@'
p25
tp26
Rp27
ag3
(g7
S'Zy\xb6\xfc\xa3\x1e;@'
p28
tp29
Rp30
ag3
(g7
S'-#U\xe8JL\x16@'
p31
tp32
Rp33
ag3
(g7
S'n\x11\x93\xa1\x86\x12Z@'
p34
tp35
Rp36
ag3
(g7
S'\x16\x0eH\x83\xf6\x9d?@'
p37
tp38
Rp39
ag3
(g7
S'G\xdc\xfd\xc3\x0e\xa7<@'
p40
tp41
Rp42
ag3
(g7
S'\x1fK\x87y\x96cP@'
p43
tp44
Rp45
ag3
(g7
S'\x0f\x8b\x16\x9ev\xc5O@'
p46
tp47
Rp48
ag3
(g7
S'=W\x05\xad\x80\x86;@'
p49
tp50
Rp51
ag3
(g7
S']\x19\xc5\x85\xc5\x0fG@'
p52
tp53
Rp54
ag3
(g7
S'W\x12\xbf\x01k\x19C@'
p55
tp56
Rp57
ag3
(g7
S'X\xd3\xd2\x0b\x9c\xc20@'
p58
tp59
Rp60
ag3
(g7
S'+\x1b\x92\xd8\x0b\x17U@'
p61
tp62
Rp63
ag3
(g7
S'D\xees3jZN@'
p64
tp65
Rp66
ag3
(g7
S'\xa2\xde{\xb4i\x05P@'
p67
tp68
Rp69
ag3
(g7
S'\xa6\rpB\x147<@'
p70
tp71
Rp72
ag3
(g7
S'\xb6\xf5\xdae\xaeF\xf0?'
p73
tp74
Rp75
ag3
(g7
S'\xc0\xd5\x1a\xb9Im;@'
p76
tp77
Rp78
ag3
(g7
S'\x1f\xd4\r\x81\x15\xf01@'
p79
tp80
Rp81
ag3
(g7
S'fio\xc0U\xd67@'
p82
tp83
Rp84
ag3
(g7
S'{2\x03VYkQ@'
p85
tp86
Rp87
ag3
(g7
S'\x80[\x1d\xed.\xbeG@'
p88
tp89
Rp90
ag3
(g7
S'\xed\x1bt\xcfs\xebS@'
p91
tp92
Rp93
ag3
(g7
S'\xf1\x94\x88R\xfa4N@'
p94
tp95
Rp96
ag3
(g7
S'*\xa5\xdc\xe4\x04VE@'
p97
tp98
Rp99
ag3
(g7
S'\xac\xe9\x1e\xe4\xd4\xa0T@'
p100
tp101
Rp102
ag3
(g7
S'\x11C4|[\x18S@'
p103
tp104
Rp105
ag3
(g7
S'\xb4JS\xa3\xa4q\t@'
p106
tp107
Rp108
ag3
(g7
S'\\\x11u\xe1\x19\xcd,@'
p109
tp110
Rp111
ag3
(g7
S'\xec\xaf\x9f+\xf4\xa8>@'
p112
tp113
Rp114
ag3
(g7
S'V\xad\xb0z-AT@'
p115
tp116
Rp117
ag3
(g7
S'\xe8\x0eG\xa4\xe2\x19D@'
p118
tp119
Rp120
ag3
(g7
S'K\x8dB\xbd&uN@'
p121
tp122
Rp123
ag3
(g7
S'\xd5l\x18\xd3\x02\x87O@'
p124
tp125
Rp126
aa.