(lp0
(lp1
F4530.55233
aF4535.254374
aF4537.64225
aF4540.998918
aF4547.759159
aF4558.345945
aF4561.012595
aF4564.405822
aF4564.835313
aF4567.239946
aF4568.142371
aF4570.972161
aF4571.218853
aF4572.892195
aF4579.827278
aF4588.426418
aF4592.66643
aF4593.643959
aF4598.762949
aF4603.143767
aF4608.619441
aF4611.244453
aF4612.543928
aF4613.60401
aF4615.024319
aF4615.334111
aF4620.242532
aF4624.314351
aF4627.298084
aF4628.201884
aF4628.441048
aF4638.684582
aF4644.707008
aF4647.250193
aF4650.234614
aF4651.989384
aF4655.212846
aF4659.570368
aF4663.202971
aF4666.516185
aF4666.798835
aF4668.171424
aF4669.984249
aF4675.375803
aF4683.351536
aF4686.1947
aF4690.622309
aF4694.091583
aF4695.454438
aa(lp2
cnumpy.core.multiarray
scalar
p3
(cnumpy
dtype
p4
(S'f8'
p5
I0
I1
tp6
Rp7
(I3
S'<'
p8
NNNI-1
I-1
I0
tp9
bS'z\x13tL\xd5\x028@'
p10
tp11
Rp12
ag3
(g7
S'\x96\xf9\xee\xa1\x86\xec\x1b@'
p13
tp14
Rp15
ag3
(g7
S'\xe4\x98;\x8e\xc7\x03W@'
p16
tp17
Rp18
ag3
(g7
S'F\x97\x18\x05\x8f\xd4N@'
p19
tp20
Rp21
ag3
(g7
S'\xb2\x9eg\xe4\xec\xaed@'
p22
tp23
Rp24
ag3
(g7
S'\x10?H\xd3-C[@'
p25
tp26
Rp27
ag3
(g7
S"\xa3'\x8e\xcf\x9a',@"
p28
tp29
Rp30
ag3
(g7
S"ZZ\xc3\xd6\x1a'2@"
p31
tp32
Rp33
ag3
(g7
S'0\x85\xf0\xa9M\xd29@'
p34
tp35
Rp36
ag3
(g7
S"\x82\x19'\x1a\x91h\xf8?"
p37
tp38
Rp39
ag3
(g7
S'\xdb\x05\x9f\x92\x0bQ\x00@'
p40
tp41
Rp42
ag3
(g7
S'VF\xc7#37\x06@'
p43
tp44
Rp45
ag3
(g7
S"'\xa4\xc4\x94\xfa,T@"
p46
tp47
Rp48
ag3
(g7
S'\xdc\xc9\xc5\xae\xd6\xfd\x08@'
p49
tp50
Rp51
ag3
(g7
S'\xd1{\x87\xd8\xd3\x8cT@'
p52
tp53
Rp54
ag3
(g7
S'z)\xcb*oX)@'
p55
tp56
Rp57
ag3
(g7
S'i[\x1a\xb3\x99\x13G@'
p58
tp59
Rp60
ag3
(g7
S'\xb5\xe7\xbf\xbb\xb6\xd4F@'
p61
tp62
Rp63
ag3
(g7
S'\xd0\xbf\x03p\xbdBB@'
p64
tp65
Rp66
ag3
(g7
S'\xe3\x1bD\xf3\xdc\x90@@'
p67
tp68
Rp69
ag3
(g7
S'\xcf\xf4\x95\x87CdV@'
p70
tp71
Rp72
ag3
(g7
S'\xce!H\x1e\xa7\xcc5@'
p73
tp74
Rp75
ag3
(g7
S'#\x1b9\n\x96\x1bX@'
p76
tp77
Rp78
ag3
(g7
S'\xaf\xb0o\xd0\x97T\x10@'
p79
tp80
Rp81
ag3
(g7
S'\xc0=\xf3\xcew\xfa\\@'
p82
tp83
Rp84
ag3
(g7
S'\xc6-\xa6\x93\x16I&@'
p85
tp86
Rp87
ag3
(g7
S'\xcb\xceb2\xf7\xdee@'
p88
tp89
Rp90
ag3
(g7
S'\x14\xc7;<\nb/@'
p91
tp92
Rp93
ag3
(g7
S'\xe8tb dOX@'
p94
tp95
Rp96
ag3
(g7
S'`\x1f\x03h\xe8`:@'
p97
tp98
Rp99
ag3
(g7
S'\xee?(o\x89\xfcL@'
p100
tp101
Rp102
ag3
(g7
S'\x05\xe4m\xcd@\xa8\x12@'
p103
tp104
Rp105
ag3
(g7
S'\x7fza\x82\xdbaP@'
p106
tp107
Rp108
ag3
(g7
S'\xe5wy\x1c\xc1\xd36@'
p109
tp110
Rp111
ag3
(g7
S'a\x0b\xd4u\x92\x99A@'
p112
tp113
Rp114
ag3
(g7
S'\x17>}\xd6`!\x1c@'
p115
tp116
Rp117
ag3
(g7
S'FB\xca\x88k`L@'
p118
tp119
Rp120
ag3
(g7
S'\x0e^\xf1\x90\xd4hQ@'
p121
tp122
Rp123
ag3
(g7
S'\xe0\xfb\xcc\xc9>\x85R@'
p124
tp125
Rp126
ag3
(g7
S',\xd9Q}\x1f\xd1\x08@'
p127
tp128
Rp129
ag3
(g7
S'\xf9\xa2s\xff\xe1gV@'
p130
tp131
Rp132
ag3
(g7
S'\nT\x85\x8d-\x819@'
p133
tp134
Rp135
ag3
(g7
S':-m\x01Vf.@'
p136
tp137
Rp138
ag3
(g7
S'65\xde\xbex%P@'
p139
tp140
Rp141
ag3
(g7
S'\xa7O\xec\x9e}\x84I@'
p142
tp143
Rp144
ag3
(g7
S'^\x97m\xe0\x7f#A@'
p145
tp146
Rp147
ag3
(g7
S'\xf2\xa4\xc1~\x82\x95G@'
p148
tp149
Rp150
ag3
(g7
S'\x8b\nq\xd7O\x16 @'
p151
tp152
Rp153
ag3
(g7
S'\xeca\x1e@\x9e\xcaP@'
p154
tp155
Rp156
aa.