(lp0
(lp1
F4266.286458
aF4266.527325
aF4269.064793
aF4276.807189
aF4278.322907
aF4280.567019
aF4281.068158
aF4281.414763
aF4282.897713
aF4288.6688
aF4291.809723
aF4295.584873
aF4299.634234
aF4299.839604
aF4300.649946
aF4303.989208
aF4307.176075
aF4308.121805
aF4311.799273
aF4315.254471
aF4318.415661
aF4320.126431
aF4325.274266
aF4328.915443
aF4330.411334
aF4330.84412
aF4332.029855
aF4337.277141
aF4340.895167
aF4342.443971
aF4343.3818
aF4343.951448
aF4344.326495
aF4354.482703
aF4357.613456
aF4362.066631
aF4363.79473
aF4365.930205
aF4369.875571
aF4372.489522
aF4378.176824
aF4379.213895
aF4379.667209
aF4381.859986
aF4385.057274
aF4387.734646
aF4391.110881
aF4392.974102
aF4393.759438
aF4396.478255
aF4401.58093
aF4402.926798
aF4409.89882
aF4414.486318
aF4416.237933
aF4416.845034
aF4422.048113
aF4423.720151
aF4430.996494
aF4432.252182
aF4432.962762
aF4433.838218
aa(lp2
cnumpy.core.multiarray
scalar
p3
(cnumpy
dtype
p4
(S'f8'
p5
I0
I1
tp6
Rp7
(I3
S'<'
p8
NNNI-1
I-1
I0
tp9
bS'\x8d\xfa;\x16xC.@'
p10
tp11
Rp12
ag3
(g7
S'\x16\xef\x85\x8e]ng@'
p13
tp14
Rp15
ag3
(g7
S'c\xcc\xae\xd8a\xc5)@'
p16
tp17
Rp18
ag3
(g7
S'\xd6\x1b\xb9\xf3_\xa9a@'
p19
tp20
Rp21
ag3
(g7
S'\x973\xb9h\x9agl@'
p22
tp23
Rp24
ag3
(g7
S'\t\xcf2\xfc5\x00}@'
p25
tp26
Rp27
ag3
(g7
S'#\xff\xa4+\x86\xeev@'
p28
tp29
Rp30
ag3
(g7
S'\x8c\xe7Qr\xaeEv@'
p31
tp32
Rp33
ag3
(g7
S'+\xcbV\xbe\x1f\xbfT@'
p34
tp35
Rp36
ag3
(g7
S'..\xef\xde\xcc!W@'
p37
tp38
Rp39
ag3
(g7
S'\xf5\xd4Da\xf1\xffY@'
p40
tp41
Rp42
ag3
(g7
S'\x90{\x8a\xf4\x97\xccF@'
p43
tp44
Rp45
ag3
(g7
S'V\xf6\x0e\x96\x95\xadd@'
p46
tp47
Rp48
ag3
(g7
S'\xf1\xab{\xba^\x8cE@'
p49
tp50
Rp51
ag3
(g7
S'\x14:\xa9\x91\xa0MQ@'
p52
tp53
Rp54
ag3
(g7
S'\x90\x8e*a\xd0\xbe\xfa?'
p55
tp56
Rp57
ag3
(g7
S'\xa1l\x87\xae\xc7WC@'
p58
tp59
Rp60
ag3
(g7
S'\xb9\xe3\xf3I\xd7\xde6@'
p61
tp62
Rp63
ag3
(g7
S'?\x00\x9fE\xc8\xf3T@'
p64
tp65
Rp66
ag3
(g7
S'IH\x08\xa3\xe3EG@'
p67
tp68
Rp69
ag3
(g7
S'\x8f\xad~\x98@\x92E@'
p70
tp71
Rp72
ag3
(g7
S'7\xe4\t\xaa6GU@'
p73
tp74
Rp75
ag3
(g7
S'/\xd6\x04g#\xf8A@'
p76
tp77
Rp78
ag3
(g7
S'g\xb9`kM\xd6\xfd?'
p79
tp80
Rp81
ag3
(g7
S'\xe61x\x03O<:@'
p82
tp83
Rp84
ag3
(g7
S'\xf3\xa52\xf5BF?@'
p85
tp86
Rp87
ag3
(g7
S'\xe7\x9b\x1eO1\x93F@'
p88
tp89
Rp90
ag3
(g7
S'jX\xfa\x88/\x8a)@'
p91
tp92
Rp93
ag3
(g7
S'\xdb\x8bNu\xc5\x89G@'
p94
tp95
Rp96
ag3
(g7
S'n\xc9\xf0\xab5\x81`@'
p97
tp98
Rp99
ag3
(g7
S'k\x00\xb3\x07zO]@'
p100
tp101
Rp102
ag3
(g7
S'\x19H]\x9e>\x0fT@'
p103
tp104
Rp105
ag3
(g7
S'\xf3\xd4C>\xe8\xeb0@'
p106
tp107
Rp108
ag3
(g7
S'\x8c\x9f\xec\xf8ph]@'
p109
tp110
Rp111
ag3
(g7
S'\xda\x19\xed\xacu\xd2P@'
p112
tp113
Rp114
ag3
(g7
S'\xde \x15\r\xe4jC@'
p115
tp116
Rp117
ag3
(g7
S'\x8bi\xcc\xfa\xd0\xf2\x12@'
p118
tp119
Rp120
ag3
(g7
S'[\x138\xfc\xb0\xeb\x17@'
p121
tp122
Rp123
ag3
(g7
S'W\xf2\xe0\xfb!\xb6>@'
p124
tp125
Rp126
ag3
(g7
S'\xd7_\x91@W\x07[@'
p127
tp128
Rp129
ag3
(g7
S'\xd0\xf7\x1ck)HB@'
p130
tp131
Rp132
ag3
(g7
S'\xe5@~\xe0\xa7QM@'
p133
tp134
Rp135
ag3
(g7
S'\x85\xed\x9c3\x8b\x94\x02@'
p136
tp137
Rp138
ag3
(g7
S'i\xaa\x00\xf7\x03\x9eK@'
p139
tp140
Rp141
ag3
(g7
S'}&+O(\x17B@'
p142
tp143
Rp144
ag3
(g7
S'H\x92G\xeb\xc2\xfaB@'
p145
tp146
Rp147
ag3
(g7
S'\x93\x08\xbb\xfc\xbd/>@'
p148
tp149
Rp150
ag3
(g7
S'\xc6\xd3\x99\xf8\xecnF@'
p151
tp152
Rp153
ag3
(g7
S'\xe6\xbc\xa6z\x0c\xf8J@'
p154
tp155
Rp156
ag3
(g7
S'o\t\xc5{\xe2\xb7>@'
p157
tp158
Rp159
ag3
(g7
S'\x94\xaf\x99\x91o|*@'
p160
tp161
Rp162
ag3
(g7
S'\x1cJ\xcdC\x0b\xb1N@'
p163
tp164
Rp165
ag3
(g7
S'\xc8\xdf\x9fg2DC@'
p166
tp167
Rp168
ag3
(g7
S"\xda\xf6i'\x9c\x805@"
p169
tp170
Rp171
ag3
(g7
S'T\xdb\xbf\xf1$\x129@'
p172
tp173
Rp174
ag3
(g7
S'0Ks\x97pGL@'
p175
tp176
Rp177
ag3
(g7
S'\xfc\x1f\xa5\xf8T\x89W@'
p178
tp179
Rp180
ag3
(g7
S'%\xa4X\xc8\x01CG@'
p181
tp182
Rp183
ag3
(g7
S"\xda/a\xc4\xd3':@"
p184
tp185
Rp186
ag3
(g7
S'\xd9s \x10\n\x15C@'
p187
tp188
Rp189
ag3
(g7
S'\x01\x8f\r7!o<@'
p190
tp191
Rp192
ag3
(g7
S'\x08\r\xbf\xe9\x94\xf3F@'
p193
tp194
Rp195
aa.