(lp0
(lp1
F6756.163468
aF6766.612079
aF6778.313276
aF6780.125504
aF6788.84024
aF6791.234859
aF6808.531565
aF6824.677603
aF6827.249245
aF6829.035562
aF6851.884961
aF6854.10935
aF6861.269179
aF6863.535106
aF6866.763067
aF6868.451278
aF6874.753192
aF6879.582453
aF6882.811098
aF6887.088119
aF6889.303144
aF6907.597092
aF6909.849224
aF6916.128859
aF6937.663708
aF6942.538016
aF6943.610523
aF6945.49021
aF6951.477124
aF6954.65602
aF6960.249543
aa(lp2
cnumpy.core.multiarray
scalar
p3
(cnumpy
dtype
p4
(S'f8'
p5
I0
I1
tp6
Rp7
(I3
S'<'
p8
NNNI-1
I-1
I0
tp9
bS'\x8d;k=7\x01\x10@'
p10
tp11
Rp12
ag3
(g7
S'\x15)\xfe}\x19\x08@@'
p13
tp14
Rp15
ag3
(g7
S'\x8d\xbf\x84\x17\xd8WT@'
p16
tp17
Rp18
ag3
(g7
S'h\x05?\x06\xc4YZ@'
p19
tp20
Rp21
ag3
(g7
S'\xda\xa80\xd7\xf93D@'
p22
tp23
Rp24
ag3
(g7
S'\xfa\xab-\x7f.\xa3C@'
p25
tp26
Rp27
ag3
(g7
S'\xbc\x82\x06rO\xef\\@'
p28
tp29
Rp30
ag3
(g7
S'S\xc6\x1fN\xa8\x14+@'
p31
tp32
Rp33
ag3
(g7
S'\xaf\xf0\xc3d\xe7\xb7!@'
p34
tp35
Rp36
ag3
(g7
S'\xa3\xc0\x10R}\xf4&@'
p37
tp38
Rp39
ag3
(g7
S'\xd4\x89\xda\xdc\xc4\xf2*@'
p40
tp41
Rp42
ag3
(g7
S'\xce\xd4C\xdb(l3@'
p43
tp44
Rp45
ag3
(g7
S'\xccMbTx\xa9C@'
p46
tp47
Rp48
ag3
(g7
S'\x99A\x815\xe0D @'
p49
tp50
Rp51
ag3
(g7
S'\xcc\x19D<r\xb3;@'
p52
tp53
Rp54
ag3
(g7
S'\x1e\x84\x9fah\xd5/@'
p55
tp56
Rp57
ag3
(g7
S'\xad\x07\xfa\xcd\x86<L@'
p58
tp59
Rp60
ag3
(g7
S'H\xb3h\xc1/o[@'
p61
tp62
Rp63
ag3
(g7
S'\xdc\xf8\x892\xce\xf2>@'
p64
tp65
Rp66
ag3
(g7
S'\x1a\xbb\xab\xf5\xd7\x11B@'
p67
tp68
Rp69
ag3
(g7
S'*T\x1f\x86\x15\xa45@'
p70
tp71
Rp72
ag3
(g7
S'!t\xff|\x9fc"@'
p73
tp74
Rp75
ag3
(g7
S'2h\x1e;w\xc5d@'
p76
tp77
Rp78
ag3
(g7
S'\x8a\x81\xfe\xe4\xf70)@'
p79
tp80
Rp81
ag3
(g7
S'H\xad0Y\t\x82b@'
p82
tp83
Rp84
ag3
(g7
S'\xbf\x83R\xb2\xd7\xfcg@'
p85
tp86
Rp87
ag3
(g7
S'\xb5\xde\xac\xf4Dg5@'
p88
tp89
Rp90
ag3
(g7
S'\x1d\x16)\x11=\xf83@'
p91
tp92
Rp93
ag3
(g7
S'\xce\x86-cM|<@'
p94
tp95
Rp96
ag3
(g7
S'\xc7\xf0\x1b\xbe\xeb]W@'
p97
tp98
Rp99
ag3
(g7
S']\xf61i\xe4\xdaQ@'
p100
tp101
Rp102
aa.