(lp0
(lp1
F7158.838154
aF7162.556425
aF7173.372448
aF7191.132793
aF7200.045414
aF7202.516112
aF7206.482928
aF7206.979882
aF7208.006314
aF7212.689565
aF7219.151439
aF7229.938112
aF7244.696524
aF7265.171889
aF7284.903267
aF7285.443168
aF7316.004481
aF7328.285014
aF7341.151478
aF7345.399103
aF7350.813537
aF7376.877194
aF7380.422908
aF7392.979599
aF7412.336357
aF7418.549859
aF7422.311318
aF7425.29365
aF7428.940503
aF7430.253226
aF7435.367797
aF7436.29646
aa(lp2
cnumpy.core.multiarray
scalar
p3
(cnumpy
dtype
p4
(S'f8'
p5
I0
I1
tp6
Rp7
(I3
S'<'
p8
NNNI-1
I-1
I0
tp9
bS'\xeb^R\xee\x93\xd1S@'
p10
tp11
Rp12
ag3
(g7
S'\xb4B\xca\x83\xe9v\\@'
p13
tp14
Rp15
ag3
(g7
S'#IJ\xdc\xa9\xc4K@'
p16
tp17
Rp18
ag3
(g7
S'\x8c\xd8\xd8\x9em\x01\x1b@'
p19
tp20
Rp21
ag3
(g7
S'o\x88\x82\x12s\x07`@'
p22
tp23
Rp24
ag3
(g7
S'\xfe\xf9\x8b\xe2$\\A@'
p25
tp26
Rp27
ag3
(g7
S'\x08\xa2\xa1\x98\xa5\xe2?@'
p28
tp29
Rp30
ag3
(g7
S'O+\xc4\xa9=\x8eX@'
p31
tp32
Rp33
ag3
(g7
S'e\x0e\xcb\x16o\x95/@'
p34
tp35
Rp36
ag3
(g7
S'\x17_\xe61\xb9%S@'
p37
tp38
Rp39
ag3
(g7
S'\xb8\xa8\xffC2\xd5S@'
p40
tp41
Rp42
ag3
(g7
S'\xc6\xc4^P{\xfa2@'
p43
tp44
Rp45
ag3
(g7
S'-\x93\xe8\x9d]\xb7\x15@'
p46
tp47
Rp48
ag3
(g7
S'\xdf\x0e\xe7/\x99\xd32@'
p49
tp50
Rp51
ag3
(g7
S'h\xf2\x03>\xee\xd68@'
p52
tp53
Rp54
ag3
(g7
S'\xe5\x15&j\xd4\xa1U@'
p55
tp56
Rp57
ag3
(g7
S'\xdfS0\xb6\x1d\xc1!@'
p58
tp59
Rp60
ag3
(g7
S"\\'a\xcdP\xa6Z@"
p61
tp62
Rp63
ag3
(g7
S'\x12\xe3dW2cB@'
p64
tp65
Rp66
ag3
(g7
S'a\\\n\xf5-\x96G@'
p67
tp68
Rp69
ag3
(g7
S"(E+\xad\xd5/'@"
p70
tp71
Rp72
ag3
(g7
S'\x05\x9d\xafx rO@'
p73
tp74
Rp75
ag3
(g7
S'=\x1f\xc7n\r\xab[@'
p76
tp77
Rp78
ag3
(g7
S'\x10\x99\xfd\x0b\x89\xf9;@'
p79
tp80
Rp81
ag3
(g7
S'\x8d}\xc3={BA@'
p82
tp83
Rp84
ag3
(g7
S'\xf7q{\x98\xee\xffR@'
p85
tp86
Rp87
ag3
(g7
S'\x12\xfb2"K\xe9:@'
p88
tp89
Rp90
ag3
(g7
S'\xad\x10\xe9OO\xe9L@'
p91
tp92
Rp93
ag3
(g7
S'\x94\\\xa4"\xbc\xc2\xd9?'
p94
tp95
Rp96
ag3
(g7
S'P\xb4\xe6\x15&\xbfF@'
p97
tp98
Rp99
ag3
(g7
S'z\x18%\xa1\xf2\xccE@'
p100
tp101
Rp102
ag3
(g7
S'\xba,-\x8d4$"@'
p103
tp104
Rp105
aa.