(lp0
(lp1
F5542.890641
aF5545.050449
aF5548.176013
aF5557.045427
aF5559.891048
aF5570.926601
aF5576.204181
aF5579.357544
aF5580.077108
aF5580.755059
aF5583.76248
aF5593.612466
aF5595.064394
aF5597.476746
aF5599.655001
aF5601.603067
aF5604.515166
aF5606.386056
aF5610.680538
aF5612.067646
aF5618.014336
aF5620.92162
aF5625.678431
aF5630.296222
aF5631.155668
aF5633.294805
aF5639.746033
aF5646.453195
aF5648.686951
aF5648.990954
aF5650.70512
aF5657.925206
aF5663.041672
aF5664.620855
aF5665.179556
aF5665.628288
aF5667.127984
aF5673.836093
aF5677.052542
aF5687.348449
aF5696.390416
aF5698.294609
aF5700.459069
aF5702.651464
aF5704.376668
aF5707.103137
aF5717.170806
aF5721.423878
aF5725.011923
aF5725.388111
aF5727.710012
aF5736.029422
aF5739.520188
aF5741.171037
aF5741.829296
aF5742.083972
aF5748.324266
aF5748.741222
aF5749.389072
aF5753.026927
aF5763.528456
aa(lp2
cnumpy.core.multiarray
scalar
p3
(cnumpy
dtype
p4
(S'f8'
p5
I0
I1
tp6
Rp7
(I3
S'<'
p8
NNNI-1
I-1
I0
tp9
bS'\x12\x04\x86Ry\xfb_@'
p10
tp11
Rp12
ag3
(g7
S'4\xfei?\x07yG@'
p13
tp14
Rp15
ag3
(g7
S'\x18a\x9b@\x10KH@'
p16
tp17
Rp18
ag3
(g7
S'\x1a\x8esG\xa1\xf2G@'
p19
tp20
Rp21
ag3
(g7
S'\\\x0c\xb6\xad:!k@'
p22
tp23
Rp24
ag3
(g7
S'\xecq\x00\x90$\xb1S@'
p25
tp26
Rp27
ag3
(g7
S'\xfc&\xfb\x14s\x14W@'
p28
tp29
Rp30
ag3
(g7
S'$\xef\x1dM\xa1=U@'
p31
tp32
Rp33
ag3
(g7
S'F@\xe7#\x9f|L@'
p34
tp35
Rp36
ag3
(g7
S'\x95\x931\xb5\xfe\xb2L@'
p37
tp38
Rp39
ag3
(g7
S"\xbc\x16\xfd\xb3'\xdc2@"
p40
tp41
Rp42
ag3
(g7
S'\xbb6V;k\xe0D@'
p43
tp44
Rp45
ag3
(g7
S'1 7\x87\x7f.8@'
p46
tp47
Rp48
ag3
(g7
S'\x8eA\xd7\xe5tSA@'
p49
tp50
Rp51
ag3
(g7
S'\xf1\xdf\xfc\xa9w\x84P@'
p52
tp53
Rp54
ag3
(g7
S'w\xf5\x1f\xe1\xbd\x14D@'
p55
tp56
Rp57
ag3
(g7
S'^A|\xab\x07\xee>@'
p58
tp59
Rp60
ag3
(g7
S"B\xd6\x1fA\xcb;'@"
p61
tp62
Rp63
ag3
(g7
S's\xaf0\n\xb7:S@'
p64
tp65
Rp66
ag3
(g7
S'\x8c\x7f\xd7\xc7\xb8\x1a;@'
p67
tp68
Rp69
ag3
(g7
S'\xd6\x02\xf1\xb0\xe3\x048@'
p70
tp71
Rp72
ag3
(g7
S"`'\x91\xafq\xb6Y@"
p73
tp74
Rp75
ag3
(g7
S'c\xf6\xcd\xef\t6Y@'
p76
tp77
Rp78
ag3
(g7
S'd\xb5P\xf2L;;@'
p79
tp80
Rp81
ag3
(g7
S'\xa3\xa7\x18/\x86|*@'
p82
tp83
Rp84
ag3
(g7
S'\x13WI"\x1f&E@'
p85
tp86
Rp87
ag3
(g7
S'\x8e@o\x08\x88:\x0e@'
p88
tp89
Rp90
ag3
(g7
S'\xa0\x98i\xd2\xde\x96M@'
p91
tp92
Rp93
ag3
(g7
S'\x1a\xd6j\xe6\x17\x06f@'
p94
tp95
Rp96
ag3
(g7
S'\xbc\xbff\x98"iB@'
p97
tp98
Rp99
ag3
(g7
S'^\xbbs`\xc4\xd2:@'
p100
tp101
Rp102
ag3
(g7
S'\xf2\xc5\xfc~E\xfd@@'
p103
tp104
Rp105
ag3
(g7
S'\xee)\xf1\xa6\xb2@;@'
p106
tp107
Rp108
ag3
(g7
S'\n\xc2Ty\xccs\x12@'
p109
tp110
Rp111
ag3
(g7
S'}\xa1%\xe3Q\x08>@'
p112
tp113
Rp114
ag3
(g7
S'\xb9\x1a0dC\xd07@'
p115
tp116
Rp117
ag3
(g7
S'\xc2O\x16\xb7Z\xbc\\@'
p118
tp119
Rp120
ag3
(g7
S'\x97\x87\xea\xa1\xd6\x85H@'
p121
tp122
Rp123
ag3
(g7
S'>\xa1\x95]\x00\xcbR@'
p124
tp125
Rp126
ag3
(g7
S'J\x07\xbb\xf4\x08\xc1]@'
p127
tp128
Rp129
ag3
(g7
S's\x84*\xd5f\x81,@'
p130
tp131
Rp132
ag3
(g7
S"L'dK\xe2h@@"
p133
tp134
Rp135
ag3
(g7
S'\xc6\xcb#s\xda\x1bQ@'
p136
tp137
Rp138
ag3
(g7
S'\xeee\xc4\xdd(\xc4i@'
p139
tp140
Rp141
ag3
(g7
S'b\x85\x0f\x12\xa9\x03S@'
p142
tp143
Rp144
ag3
(g7
S'\xed>\xd2\xc9\xdd\xa4F@'
p145
tp146
Rp147
ag3
(g7
S'\x18F\x86\xb0,WQ@'
p148
tp149
Rp150
ag3
(g7
S'\x06\xf2\xd3>\xfbSP@'
p151
tp152
Rp153
ag3
(g7
S"'\xe4\x10\rK\x0cL@"
p154
tp155
Rp156
ag3
(g7
S'\xa2\x85\xe9\x9aq\xf5(@'
p157
tp158
Rp159
ag3
(g7
S' \xbb\x96k\xe6`Q@'
p160
tp161
Rp162
ag3
(g7
S'UpI\x1a>\nD@'
p163
tp164
Rp165
ag3
(g7
S'Q\xda\xb9\x84\x11CD@'
p166
tp167
Rp168
ag3
(g7
S'\xd0@\x8f\xd9\x1a\xd3P@'
p169
tp170
Rp171
ag3
(g7
S'\xb4\x8d%\xf1n\xa2\x12@'
p172
tp173
Rp174
ag3
(g7
S':\\\xaavN!D@'
p175
tp176
Rp177
ag3
(g7
S'\xd1z\xb7\x0b\xd2\xf32@'
p178
tp179
Rp180
ag3
(g7
S'\xea\xcf\xfcW\xa6\xcc$@'
p181
tp182
Rp183
ag3
(g7
S'\xbb\xb5\xe0\xb8\xf4pP@'
p184
tp185
Rp186
ag3
(g7
S'\xe2=\x16\xb2\xfc\x83N@'
p187
tp188
Rp189
ag3
(g7
S'\xc2\x94\xa1\n\x12\xae#@'
p190
tp191
Rp192
aa.