(lp0
(lp1
F6937.663708
aF6943.610523
aF6945.49021
aF6951.477124
aF6960.249543
aF6992.212068
aF6993.037071
aF7000.803628
aF7002.882909
aF7018.567528
aF7025.224644
aF7045.79702
aF7053.619563
aF7058.489446
aF7060.041641
aF7060.653804
aF7064.451514
aF7072.393907
aF7075.333559
aF7084.169001
aF7086.703961
aF7089.339466
aF7107.477291
aF7109.860168
aF7124.560689
aF7125.819469
aF7150.284392
aF7158.838154
aF7162.556425
aF7173.372448
aF7191.132793
aF7200.045414
aF7202.516112
aF7206.482928
aa(lp2
cnumpy.core.multiarray
scalar
p3
(cnumpy
dtype
p4
(S'f8'
p5
I0
I1
tp6
Rp7
(I3
S'<'
p8
NNNI-1
I-1
I0
tp9
bS'k"\x19e\x90\xcf\x01@'
p10
tp11
Rp12
ag3
(g7
S'\xe4\xd1\xfaR\x1a\x1c0@'
p13
tp14
Rp15
ag3
(g7
S'~\xbe\xfe\x13\xdbrT@'
p16
tp17
Rp18
ag3
(g7
S'\x16<\xe0F\x87iF@'
p19
tp20
Rp21
ag3
(g7
S'\x00hi\x08@*O@'
p22
tp23
Rp24
ag3
(g7
S'\xbaZ=\xf0\x11\xb5<@'
p25
tp26
Rp27
ag3
(g7
S'4u\xe8+\xff\xe9f@'
p28
tp29
Rp30
ag3
(g7
S'\xa9\x00/b\xec\xf2P@'
p31
tp32
Rp33
ag3
(g7
S'R\xb25\x1c\xc7\xa21@'
p34
tp35
Rp36
ag3
(g7
S'f3X\x1b\xa4\xb6S@'
p37
tp38
Rp39
ag3
(g7
S'\x92\\\x963\xb0\x136@'
p40
tp41
Rp42
ag3
(g7
S'<\xc1\xff\x1fq\x85U@'
p43
tp44
Rp45
ag3
(g7
S'\x08\x99\x8a\x8dww>@'
p46
tp47
Rp48
ag3
(g7
S'\xa7\xd8Cl^\xee>@'
p49
tp50
Rp51
ag3
(g7
S'w\xf6\x8fb\xec\xc85@'
p52
tp53
Rp54
ag3
(g7
S'\xec)W\xee\xbc\xcc4@'
p55
tp56
Rp57
ag3
(g7
S'1]y9\xb7\xfcr@'
p58
tp59
Rp60
ag3
(g7
S'Z6\xbaE\xdalP@'
p61
tp62
Rp63
ag3
(g7
S'\r\x01f\xdb\xf8\xcd@@'
p64
tp65
Rp66
ag3
(g7
S'\x1a\x8cv\xc6\xb6\xf8E@'
p67
tp68
Rp69
ag3
(g7
S'\x81\xa4!4\xb3\xfeV@'
p70
tp71
Rp72
ag3
(g7
S'/\x0fE\xc0\xbd\x93T@'
p73
tp74
Rp75
ag3
(g7
S'o\xdeN\\N\x0eZ@'
p76
tp77
Rp78
ag3
(g7
S'\xd4\xf4&h\x15\x14@@'
p79
tp80
Rp81
ag3
(g7
S'\xe0\xc0*\x83\x02\x1dQ@'
p82
tp83
Rp84
ag3
(g7
S'\x83\xe2\xe8\xf68}P@'
p85
tp86
Rp87
ag3
(g7
S')\xad\xae\xdd\xdf\x0b[@'
p88
tp89
Rp90
ag3
(g7
S'\xb6\xe3\xbe\xde\xe6\xb4\x15@'
p91
tp92
Rp93
ag3
(g7
S'\xf0\x80\x1d\x11\x9ey=@'
p94
tp95
Rp96
ag3
(g7
S'\xa5Ai\xa5|\xa8Y@'
p97
tp98
Rp99
ag3
(g7
S'\xe2\xfaQN\xec\xecN@'
p100
tp101
Rp102
ag3
(g7
S'\xf2\xff\xcad\xe6D\r@'
p103
tp104
Rp105
ag3
(g7
S'xF\xf2\x9b\xaf\xcaD@'
p106
tp107
Rp108
ag3
(g7
S'|\r\x90/h\xb1:@'
p109
tp110
Rp111
aa.