(lp0
(lp1
F5281.068457
aF5281.628674
aF5286.069521
aF5286.88695
aF5291.81662
aF5293.811852
aF5294.396938
aF5298.282447
aF5300.523253
aF5306.98638
aF5307.465492
aF5310.266559
aF5312.001778
aF5317.49444
aF5320.769926
aF5325.143845
aF5325.431684
aF5326.975658
aF5340.498065
aF5343.581173
aF5344.524321
aF5345.31147
aF5346.377927
aF5347.971782
aF5349.005334
aF5351.126857
aF5354.601394
aF5355.636115
aF5358.707408
aF5359.826437
aF5360.149511
aF5361.155263
aF5362.575235
aF5370.70932
aF5372.702205
aF5374.821567
aF5375.352518
aF5375.768622
aF5376.13005
aF5378.835215
aF5379.110219
aF5382.927239
aF5384.035411
aF5386.610713
aF5387.813206
aF5388.051083
aF5392.572787
aF5393.600197
aF5394.761204
aF5397.516616
aF5398.205732
aF5398.702101
aF5399.1752
aF5399.622162
aF5400.146164
aF5402.60504
aF5403.199272
aF5407.34361
aF5407.653006
aF5410.768418
aF5412.44637
aF5424.007403
aF5425.677824
aF5426.406673
aF5431.111593
aF5434.151676
aF5437.388347
aF5438.137887
aF5440.601143
aF5449.47979
aF5451.65205
aF5452.21866
aF5454.305823
aF5457.797894
aF5461.736883
aF5462.612784
aF5464.205069
aF5470.758744
aF5479.074296
aF5490.118976
aa(lp2
cnumpy.core.multiarray
scalar
p3
(cnumpy
dtype
p4
(S'f8'
p5
I0
I1
tp6
Rp7
(I3
S'<'
p8
NNNI-1
I-1
I0
tp9
bS'4\xfb;\x17\xd4gP@'
p10
tp11
Rp12
ag3
(g7
S'\xa4Ij\xc8\xc6G5@'
p13
tp14
Rp15
ag3
(g7
S'\xe3^\xac\xd1\xbd\x9dr@'
p16
tp17
Rp18
ag3
(g7
S'\xd5\xee\xd5\xfb]qS@'
p19
tp20
Rp21
ag3
(g7
S'\xe6_\x88\xee\x17K`@'
p22
tp23
Rp24
ag3
(g7
S'\xcf\xa71\xb3\xbb\x8fm@'
p25
tp26
Rp27
ag3
(g7
S'<\xbb\x9fO\xf5v4@'
p28
tp29
Rp30
ag3
(g7
S'\x85\x1bSRrl@@'
p31
tp32
Rp33
ag3
(g7
S'\xe2\tm\xf0h\xba:@'
p34
tp35
Rp36
ag3
(g7
S'\xda\xa9)y\xc0bV@'
p37
tp38
Rp39
ag3
(g7
S'\x92\xeb\xea\x8c\x06g.@'
p40
tp41
Rp42
ag3
(g7
S'\xf2t\xfczY[H@'
p43
tp44
Rp45
ag3
(g7
S'\xde\x86\x16\x13$6O@'
p46
tp47
Rp48
ag3
(g7
S'\xd6\x8c_\xf3\x07\xe6R@'
p49
tp50
Rp51
ag3
(g7
S'\xe3S\x9d\x11\xfeC:@'
p52
tp53
Rp54
ag3
(g7
S'&\x9c\xa7@*SQ@'
p55
tp56
Rp57
ag3
(g7
S'\xb8\xdc\xf4\xc19O@@'
p58
tp59
Rp60
ag3
(g7
S'8\xa3\xfa\x84\xf8S\x01@'
p61
tp62
Rp63
ag3
(g7
S'lTK\x03\xb9\xa32@'
p64
tp65
Rp66
ag3
(g7
S'\xc0y\xab\nyR\x13@'
p67
tp68
Rp69
ag3
(g7
S'\x12\x96/$X\x03\x17@'
p70
tp71
Rp72
ag3
(g7
S'\xe4N\x90\xd5\x10$J@'
p73
tp74
Rp75
ag3
(g7
S'\xbf"\xed\x1dL\xe4(@'
p76
tp77
Rp78
ag3
(g7
S"l\x01ZM\xe0\xfe'@"
p79
tp80
Rp81
ag3
(g7
S'wi\x92\xe8\xc9if@'
p82
tp83
Rp84
ag3
(g7
S'\x8cBUko\x10H@'
p85
tp86
Rp87
ag3
(g7
S'm!\x19\xdc\xd7\xd5"@'
p88
tp89
Rp90
ag3
(g7
S'\xb9\xd8\xc5\xd8\xa2\xc0J@'
p91
tp92
Rp93
ag3
(g7
S'\xf3\xbe\x83C\xba\x16v@'
p94
tp95
Rp96
ag3
(g7
S'\x19l_\x14\xff\x83\\@'
p97
tp98
Rp99
ag3
(g7
S'X\x8f\x9e\x0b\r\xe46@'
p100
tp101
Rp102
ag3
(g7
S'6\xa3!\xd8\xa7UC@'
p103
tp104
Rp105
ag3
(g7
S'\x8dD\x1b\xd1\xacVO@'
p106
tp107
Rp108
ag3
(g7
S'B\taw\xf8\x93\x04@'
p109
tp110
Rp111
ag3
(g7
S'Z\x1f\x8f\xf0`\xceJ@'
p112
tp113
Rp114
ag3
(g7
S'Js\x19@$\x9c\xf5?'
p115
tp116
Rp117
ag3
(g7
S'\xf3\x9c\xee\xd6\x88\x0bD@'
p118
tp119
Rp120
ag3
(g7
S'\x16\xcf\xef*z\xccC@'
p121
tp122
Rp123
ag3
(g7
S'\x9f\xccZ+6\xd02@'
p124
tp125
Rp126
ag3
(g7
S'\x8e$\x04n\x8b\xeeU@'
p127
tp128
Rp129
ag3
(g7
S'\xa6\x90\n\xd5\xce<a@'
p130
tp131
Rp132
ag3
(g7
S'\xbe\x9f\x87\x94N\x7f]@'
p133
tp134
Rp135
ag3
(g7
S'M\x17\xe8\xb6M3^@'
p136
tp137
Rp138
ag3
(g7
S'\xf6\xad\xc1\x0c\x13\xc3P@'
p139
tp140
Rp141
ag3
(g7
S'\x14\xcb G\xe6{Y@'
p142
tp143
Rp144
ag3
(g7
S'\xd1/\xf1\xa7\x8e\xc46@'
p145
tp146
Rp147
ag3
(g7
S"\r\r\xb8\xa8'\x1bA@"
p148
tp149
Rp150
ag3
(g7
S'N\xb5N\x95_D\x1d@'
p151
tp152
Rp153
ag3
(g7
S'y\x08\x99/\xed=I@'
p154
tp155
Rp156
ag3
(g7
S'R\x08\xfb\xa8\xe9\xde9@'
p157
tp158
Rp159
ag3
(g7
S'{\xbe\xe2\xdd$\xc3H@'
p160
tp161
Rp162
ag3
(g7
S'\x15,AQ\xda\x9aQ@'
p163
tp164
Rp165
ag3
(g7
S'M\xa6\x9b\x89[\x0f2@'
p166
tp167
Rp168
ag3
(g7
S'\x90`\xe5\x8d\x0buZ@'
p169
tp170
Rp171
ag3
(g7
S'\xf0\x90\n\xa3\xff\xbf:@'
p172
tp173
Rp174
ag3
(g7
S'\xf1\xc0N\xaf \xdc5@'
p175
tp176
Rp177
ag3
(g7
S'\xfd\x83\x05\x88\x9c~\\@'
p178
tp179
Rp180
ag3
(g7
S'we\x91IG\xfbR@'
p181
tp182
Rp183
ag3
(g7
S'|\xc6\xcc*B\x94N@'
p184
tp185
Rp186
ag3
(g7
S'\xb1!o]\x01PQ@'
p187
tp188
Rp189
ag3
(g7
S'9e\x80\xe08\x08C@'
p190
tp191
Rp192
ag3
(g7
S'\xab\xaf\xb5\xc7\xb91?@'
p193
tp194
Rp195
ag3
(g7
S'u\x88\x16\x9a\x97\xdcQ@'
p196
tp197
Rp198
ag3
(g7
S'\xc9\x8d|h\x11kK@'
p199
tp200
Rp201
ag3
(g7
S'\xcd\x18x\xe8\xef`<@'
p202
tp203
Rp204
ag3
(g7
S'\xb9nQO\xb8\x9cE@'
p205
tp206
Rp207
ag3
(g7
S'\xd19\xb3\xc1<\xf7-@'
p208
tp209
Rp210
ag3
(g7
S'\xd2\xaf\xe6\xb4?\x03k@'
p211
tp212
Rp213
ag3
(g7
S'\xb9\xd1\x0fC\x19\x15h@'
p214
tp215
Rp216
ag3
(g7
S'\xf9\x0bA\x9eF\xf7?@'
p217
tp218
Rp219
ag3
(g7
S'\xa9\xc6\xa4\xaccML@'
p220
tp221
Rp222
ag3
(g7
S'\x13\xc3 \x05KX.@'
p223
tp224
Rp225
ag3
(g7
S'\xaa\xfdcF\xf1a$@'
p226
tp227
Rp228
ag3
(g7
S'\x12\x0fx\x8d\xb0:R@'
p229
tp230
Rp231
ag3
(g7
S'\xb1\xb1\x9e!\xa3\xeea@'
p232
tp233
Rp234
ag3
(g7
S'\xf4\xc1\x83\x1ay\x17<@'
p235
tp236
Rp237
ag3
(g7
S'\xbd\xdc\x9e\xac\xa5\xbdS@'
p238
tp239
Rp240
ag3
(g7
S'\xcd7\xd3\xbc\xe2\xd1Z@'
p241
tp242
Rp243
ag3
(g7
S'\x0c\xfbD\x18y.2@'
p244
tp245
Rp246
ag3
(g7
S'\xc9\xd9\x7f\xd8v|J@'
p247
tp248
Rp249
aa.