(lp0
(lp1
F6522.04242
aF6551.70562
aF6558.875783
aF6564.444993
aF6569.632213
aF6576.123271
aF6577.656281
aF6584.612923
aF6593.462049
aF6594.664531
aF6596.113003
aF6598.675206
aF6599.482253
aF6604.85343
aF6605.416955
aF6617.058979
aF6617.515959
aF6618.164963
aF6619.945897
aF6632.083536
aF6638.221029
aF6638.911903
aF6639.740761
aF6646.540749
aF6648.957834
aF6654.368352
aF6658.677188
aF6660.675984
aF6663.696428
aF6664.050878
aF6666.358628
aF6673.579996
aF6674.696969
aF6678.706868
aF6683.367225
aF6684.293258
aF6684.788419
aF6692.726335
aF6694.006106
aF6697.712496
aF6698.874332
aF6711.252013
aF6713.969781
aF6717.384832
aF6722.890153
aF6728.118304
aF6728.758749
aF6733.748613
aF6738.18018
aF6742.884245
aF6753.659461
aF6756.163468
aF6757.109172
aF6758.203031
aF6766.612079
aF6778.313276
aF6780.125504
aa(lp2
cnumpy.core.multiarray
scalar
p3
(cnumpy
dtype
p4
(S'f8'
p5
I0
I1
tp6
Rp7
(I3
S'<'
p8
NNNI-1
I-1
I0
tp9
bS'UJ\xf9rL\r\t@'
p10
tp11
Rp12
ag3
(g7
S'\xf81\xbd\xbd\x99^B@'
p13
tp14
Rp15
ag3
(g7
S'\xa3^\x0e"\xf9\xd5R@'
p16
tp17
Rp18
ag3
(g7
S'\xef\xbcw\xc3\n\xa5b@'
p19
tp20
Rp21
ag3
(g7
S'@t\x113\x85pt@'
p22
tp23
Rp24
ag3
(g7
S')p\x18\x07p\x83l@'
p25
tp26
Rp27
ag3
(g7
S'\x8b\x9d7\x0cG1a@'
p28
tp29
Rp30
ag3
(g7
S'\x85?\xae\x96\x1d\x05B@'
p31
tp32
Rp33
ag3
(g7
S'u\x1b\xbd\xb7_y0@'
p34
tp35
Rp36
ag3
(g7
S'\x07\xb6Za\x9dFe@'
p37
tp38
Rp39
ag3
(g7
S'\xa3\x0f\x8dk&$G@'
p40
tp41
Rp42
ag3
(g7
S'\x8b\x8f\x11!\x07\x9bP@'
p43
tp44
Rp45
ag3
(g7
S'\x90\xf25\x8bX\x85_@'
p46
tp47
Rp48
ag3
(g7
S'\x1b!V\xe3\xe8\x15\xe6?'
p49
tp50
Rp51
ag3
(g7
S'S\xff@\xba\xfa8\xfa?'
p52
tp53
Rp54
ag3
(g7
S'\x08\xa0\xab\x91\xf2\xeep@'
p55
tp56
Rp57
ag3
(g7
S'\x89.\xff\xd8Y\xde8@'
p58
tp59
Rp60
ag3
(g7
S'\xd3\x94\xcb\x17\xf7qT@'
p61
tp62
Rp63
ag3
(g7
S'\xf4\x9cN@\xb8xS@'
p64
tp65
Rp66
ag3
(g7
S'p\x16\x039\x01\xee=@'
p67
tp68
Rp69
ag3
(g7
S'\xc0(\xe5\xa1$\x97E@'
p70
tp71
Rp72
ag3
(g7
S'\xc2\xeaS\xed<\xdbD@'
p73
tp74
Rp75
ag3
(g7
S'\xcei\x12\x89\x10\xf34@'
p76
tp77
Rp78
ag3
(g7
S'[\xd92\x1a-\x8fb@'
p79
tp80
Rp81
ag3
(g7
S"M\x9c'\xb2]\x03^@"
p82
tp83
Rp84
ag3
(g7
S'\xff\xd1\xc7\x8c\xb0\xbed@'
p85
tp86
Rp87
ag3
(g7
S'\x8eD$4o\xd2P@'
p88
tp89
Rp90
ag3
(g7
S'\xd5\xea%\xf6\x85\xb7S@'
p91
tp92
Rp93
ag3
(g7
S'w\xc8\x0e\x9ar/T@'
p94
tp95
Rp96
ag3
(g7
S'Y\xb1\x1ei\x00\x19F@'
p97
tp98
Rp99
ag3
(g7
S'f\x88\xd2\xedw\x9bH@'
p100
tp101
Rp102
ag3
(g7
S'xO(?\x99\x04D@'
p103
tp104
Rp105
ag3
(g7
S'\xe0k\x12\x00M\x8a7@'
p106
tp107
Rp108
ag3
(g7
S'@\xe2\xde\x86\xf5\xbcJ@'
p109
tp110
Rp111
ag3
(g7
S'\xca=#8\xeec#@'
p112
tp113
Rp114
ag3
(g7
S'\xac~Q\xe8T\xe2I@'
p115
tp116
Rp117
ag3
(g7
S'\x0b\x88A\x1d\xffpX@'
p118
tp119
Rp120
ag3
(g7
S'\x0e\xaf\x98\x91\x01AA@'
p121
tp122
Rp123
ag3
(g7
S'\x85\xf3#\xf7\xcaJN@'
p124
tp125
Rp126
ag3
(g7
S'\xa7\x06@}\ry/@'
p127
tp128
Rp129
ag3
(g7
S'\x83{\x17\xd6P\xee[@'
p130
tp131
Rp132
ag3
(g7
S'\xf1\x96qh\x9e\x849@'
p133
tp134
Rp135
ag3
(g7
S'\x02!\x02\x89c\xe9\x1c@'
p136
tp137
Rp138
ag3
(g7
S'@\x96\xb3\x85d\x92|@'
p139
tp140
Rp141
ag3
(g7
S'Y\xfe\xcby\x98\xdd]@'
p142
tp143
Rp144
ag3
(g7
S'?\xf0\xc0\xe7\x10nC@'
p145
tp146
Rp147
ag3
(g7
S'\xad\x94z!\x1bQJ@'
p148
tp149
Rp150
ag3
(g7
S'\x93\x96\xe5\n\xedtD@'
p151
tp152
Rp153
ag3
(g7
S'\x03GE\x96\xc5\xf1I@'
p154
tp155
Rp156
ag3
(g7
S'\xfe\xda|\x19\xa0\xe8R@'
p157
tp158
Rp159
ag3
(g7
S'^\xd11c\xc4\xdd\xf1?'
p160
tp161
Rp162
ag3
(g7
S'\x999<M\xee\xb3[@'
p163
tp164
Rp165
ag3
(g7
S'\xcc\x93\tN\xfb\x152@'
p166
tp167
Rp168
ag3
(g7
S'\xa1*J[ \xd8$@'
p169
tp170
Rp171
ag3
(g7
S'\xbf\xdb\x82\xfe\xf3\xab7@'
p172
tp173
Rp174
ag3
(g7
S'M`U\x9cNDR@'
p175
tp176
Rp177
ag3
(g7
S'\x1c\x87.\xef\xa6TF@'
p178
tp179
Rp180
aa.