(lp0
(lp1
F4721.276176
aF4721.590308
aF4722.088747
aF4723.784408
aF4729.128367
aF4732.054032
aF4739.676734
aF4742.117501
aF4749.199831
aF4752.414027
aF4761.109795
aF4764.346347
aF4765.595474
aF4766.601069
aF4775.313691
aF4775.794315
aF4777.191733
aF4780.751025
aF4782.761194
aF4786.530632
aF4787.147499
aF4789.386339
aF4793.24488
aF4795.913819
aF4800.171433
aF4809.614655
aF4812.376111
aF4817.020718
aF4818.647871
aF4819.193168
aF4820.884994
aF4823.605718
aF4823.996682
aF4829.796917
aF4831.120944
aF4831.597425
aF4832.802415
aF4840.475242
aF4840.84274
aF4845.163006
aF4848.362742
aF4849.862041
aF4850.439875
aF4852.868708
aF4858.332526
aF4868.880725
aF4871.28859
aF4874.364234
aF4876.495337
aF4878.00946
aF4878.733135
aF4881.204677
aF4882.243739
aF4887.948196
aF4888.261987
aF4889.490314
aF4892.759664
aF4893.445228
aF4902.792955
aa(lp2
cnumpy.core.multiarray
scalar
p3
(cnumpy
dtype
p4
(S'f8'
p5
I0
I1
tp6
Rp7
(I3
S'<'
p8
NNNI-1
I-1
I0
tp9
bS'RJ.E\xa5\x94u@'
p10
tp11
Rp12
ag3
(g7
S'\x01*\xffy\xde\xabe@'
p13
tp14
Rp15
ag3
(g7
S'`\xb5\xde\xbev\xe0#@'
p16
tp17
Rp18
ag3
(g7
S'\x0e\x0b\xacM\xd9\xc1\\@'
p19
tp20
Rp21
ag3
(g7
S'h\xdc>\x1d\x17\xcec@'
p22
tp23
Rp24
ag3
(g7
S'\x91\xb2\xd5\t~vj@'
p25
tp26
Rp27
ag3
(g7
S'CT*PJ\x8b7@'
p28
tp29
Rp30
ag3
(g7
S'\xfaV\xbcNjMe@'
p31
tp32
Rp33
ag3
(g7
S'@\x91\xa8\xc2\xf638@'
p34
tp35
Rp36
ag3
(g7
S'\x82\x07\xe9\x00\xcb\\H@'
p37
tp38
Rp39
ag3
(g7
S'f1\xc1\xadcCI@'
p40
tp41
Rp42
ag3
(g7
S'\xb3V\xd6\xa4\x8e\xd42@'
p43
tp44
Rp45
ag3
(g7
S'\xb89\x19\x8b\xc7\x937@'
p46
tp47
Rp48
ag3
(g7
S'\xe5)\x80\x82\xae\x81S@'
p49
tp50
Rp51
ag3
(g7
S'R\x8f\x7f\xfa\xe6\xdfU@'
p52
tp53
Rp54
ag3
(g7
S'RZ\x19A5\xc5R@'
p55
tp56
Rp57
ag3
(g7
S'\xbb\xf7\xf7\xbb\xe4\xfbO@'
p58
tp59
Rp60
ag3
(g7
S'\xd6\x17\x1d\x83X\xefQ@'
p61
tp62
Rp63
ag3
(g7
S'Y \x902\xa5F\x14@'
p64
tp65
Rp66
ag3
(g7
S'\x8b\xe1\x0f\x96J\x14T@'
p67
tp68
Rp69
ag3
(g7
S'\xccF\x80r\xbb\x839@'
p70
tp71
Rp72
ag3
(g7
S'\x8b\xccjXV\n<@'
p73
tp74
Rp75
ag3
(g7
S'JG\xa6\xd4s\xa0>@'
p76
tp77
Rp78
ag3
(g7
S'\x81\x00g\x0b\x03GB@'
p79
tp80
Rp81
ag3
(g7
S'\xb3\xc7\xec\xbc\xb4:[@'
p82
tp83
Rp84
ag3
(g7
S'3\x97\xfb\x85\xd5\xe7/@'
p85
tp86
Rp87
ag3
(g7
S'm:\x15\xb1\x0e>\x1e@'
p88
tp89
Rp90
ag3
(g7
S'\xcc\xc3\xcf:7\x9eU@'
p91
tp92
Rp93
ag3
(g7
S'\x1d\xeb\x87\xfa\xef\rR@'
p94
tp95
Rp96
ag3
(g7
S'\x8fHL\xd2o:E@'
p97
tp98
Rp99
ag3
(g7
S'\x9b\x1cb\x13`&E@'
p100
tp101
Rp102
ag3
(g7
S'\xdb\xab\xacp\xaa\xedG@'
p103
tp104
Rp105
ag3
(g7
S'\xc0iS7\xaf8B@'
p106
tp107
Rp108
ag3
(g7
S'\x1c\xbe\xe4\xb4\xec&M@'
p109
tp110
Rp111
ag3
(g7
S'\xad\xc2\xf2\xcb\x81\x862@'
p112
tp113
Rp114
ag3
(g7
S'U\x8c>-\xd4\x03?@'
p115
tp116
Rp117
ag3
(g7
S'\x8c\xd6\x95\xb7a\x1eS@'
p118
tp119
Rp120
ag3
(g7
S'\x89\xa2\x17\xb0V\x96B@'
p121
tp122
Rp123
ag3
(g7
S'-\xc1\xb3b1\xb3-@'
p124
tp125
Rp126
ag3
(g7
S'z\xc8\xb5\xa8\xdeK@@'
p127
tp128
Rp129
ag3
(g7
S'|Aw\xd6Z\x90W@'
p130
tp131
Rp132
ag3
(g7
S'\xa9ui\x9bx\xd0I@'
p133
tp134
Rp135
ag3
(g7
S'4\xc2v*\xf3%L@'
p136
tp137
Rp138
ag3
(g7
S'8\xbfw\xebq\xfdP@'
p139
tp140
Rp141
ag3
(g7
S'T2\xa6\xe4\xd3wS@'
p142
tp143
Rp144
ag3
(g7
S'C\xd5\x98\nf\x8a5@'
p145
tp146
Rp147
ag3
(g7
S's8\xca\xce\xd6\tP@'
p148
tp149
Rp150
ag3
(g7
S'\x06\xca\x03\x93\xbf\x8c<@'
p151
tp152
Rp153
ag3
(g7
S',.\xc5\x01\x1f\xb7+@'
p154
tp155
Rp156
ag3
(g7
S'\xbd;G\xfc\x06\x0bC@'
p157
tp158
Rp159
ag3
(g7
S'\n\xa3\x14j\x99CB@'
p160
tp161
Rp162
ag3
(g7
S'\x0c\xfcs`R\xca,@'
p163
tp164
Rp165
ag3
(g7
S'\xf7:"\x88Q\xf3;@'
p166
tp167
Rp168
ag3
(g7
S't\x98,\xf3\x9esD@'
p169
tp170
Rp171
ag3
(g7
S'\x9f\x1b\x1a\xc9d\x18?@'
p172
tp173
Rp174
ag3
(g7
S'\x97-\x18\x8bQ\x906@'
p175
tp176
Rp177
ag3
(g7
S'\x99\xbf\xf9\xb5\xd9\x87i@'
p178
tp179
Rp180
ag3
(g7
S'Y\xd6,\x81\xb9&\x0b@'
p181
tp182
Rp183
ag3
(g7
S'hno<\xd0>a@'
p184
tp185
Rp186
aa.