(lp0
(lp1
F4362.066631
aF4363.79473
aF4365.930205
aF4369.875571
aF4372.489522
aF4378.176824
aF4379.213895
aF4379.667209
aF4381.859986
aF4385.057274
aF4387.734646
aF4391.110881
aF4392.974102
aF4393.759438
aF4396.478255
aF4401.58093
aF4402.926798
aF4409.89882
aF4414.486318
aF4416.237933
aF4416.845034
aF4422.048113
aF4423.720151
aF4430.996494
aF4432.252182
aF4432.962762
aF4433.491016
aF4433.838218
aF4439.461496
aF4440.573767
aF4448.879769
aF4449.52016
aF4452.565919
aF4458.001577
aF4460.557349
aF4461.241078
aF4461.527666
aF4463.666343
aF4465.340307
aF4469.525401
aF4470.990465
aF4475.221486
aF4478.595578
aF4480.824881
aF4482.169703
aF4483.347289
aF4486.897614
aF4487.495789
aF4488.311951
aF4488.679208
aF4489.664858
aF4490.982155
aF4498.539067
aF4499.983224
aF4502.927116
aF4505.216342
aF4507.831277
aF4513.222627
aF4513.67994
aF4515.118228
aF4519.259216
aa(lp2
cnumpy.core.multiarray
scalar
p3
(cnumpy
dtype
p4
(S'f8'
p5
I0
I1
tp6
Rp7
(I3
S'<'
p8
NNNI-1
I-1
I0
tp9
bS'\x8d\xd0\xbd\xb1\x01wX@'
p10
tp11
Rp12
ag3
(g7
S'\xa9\x93X7\xea\x05U@'
p13
tp14
Rp15
ag3
(g7
S'\xc7\xee0\x80kqM@'
p16
tp17
Rp18
ag3
(g7
S'*\x18\x8a\xdei\xa3^@'
p19
tp20
Rp21
ag3
(g7
S'\xaaqt:\xe5\xc5A@'
p22
tp23
Rp24
ag3
(g7
S'\x84\xd54\x8b\xda3$@'
p25
tp26
Rp27
ag3
(g7
S'\x00\xea\xc6\xfa\xfb\x8d&@'
p28
tp29
Rp30
ag3
(g7
S'\xee\xf5G\x07$4@@'
p31
tp32
Rp33
ag3
(g7
S'\xc3\xbcU\xc8\xcf\xf4\x14@'
p34
tp35
Rp36
ag3
(g7
S'\x12|\x994V\xcf\x05@'
p37
tp38
Rp39
ag3
(g7
S'\x8a\x98\xae\xc1\x01f4@'
p40
tp41
Rp42
ag3
(g7
S'#\x9f\x84d\xcdp\x1d@'
p43
tp44
Rp45
ag3
(g7
S'{w\xdf\xbb}gR@'
p46
tp47
Rp48
ag3
(g7
S'\xd4YC\xd5\xa8\xee\x15@'
p49
tp50
Rp51
ag3
(g7
S'v_\xc1fE\x03\x1d@'
p52
tp53
Rp54
ag3
(g7
S'\x17\xf9\xd5t\x19\xda=@'
p55
tp56
Rp57
ag3
(g7
S'U\x86\x94.\xa95D@'
p58
tp59
Rp60
ag3
(g7
S'\x94\x0cZ=)~J@'
p61
tp62
Rp63
ag3
(g7
S'\xd1\xd3\x11\xcb\xf5~0@'
p64
tp65
Rp66
ag3
(g7
S'\xcap7;\xe0\xabT@'
p67
tp68
Rp69
ag3
(g7
S'\xf1\x1a[\xa8W\xd2@@'
p70
tp71
Rp72
ag3
(g7
S'\xdf{\x0c\xb2\x0f\xffV@'
p73
tp74
Rp75
ag3
(g7
S'\xed\xabL\x17\x13\xb2R@'
p76
tp77
Rp78
ag3
(g7
S'\x81\x9f\xb4 \x8cP;@'
p79
tp80
Rp81
ag3
(g7
S'E\xa1\xa4\xb8\xcf\nE@'
p82
tp83
Rp84
ag3
(g7
S'\xb1\xed\xae\x0104G@'
p85
tp86
Rp87
ag3
(g7
S'\x8b\xe9\xd81wAV@'
p88
tp89
Rp90
ag3
(g7
S'\x98\xb9\xef\xeapZB@'
p91
tp92
Rp93
ag3
(g7
S'#O\xc7,\xf5\xcc @'
p94
tp95
Rp96
ag3
(g7
S'\xb4]\x1c\x16<\x7fJ@'
p97
tp98
Rp99
ag3
(g7
S'9\xb8\x90\x89\x0c\xf7I@'
p100
tp101
Rp102
ag3
(g7
S'.\x7f\xb0\xc81\xad0@'
p103
tp104
Rp105
ag3
(g7
S'\xa2\xafz\xe8q\x86A@'
p106
tp107
Rp108
ag3
(g7
S'P"\xa3a\xcb\xfeM@'
p109
tp110
Rp111
ag3
(g7
S'V+\x04\xf82\x11G@'
p112
tp113
Rp114
ag3
(g7
S'^\xe4\xff\xf4\xe8rE@'
p115
tp116
Rp117
ag3
(g7
S'e#:\x848\x1dD@'
p118
tp119
Rp120
ag3
(g7
S'K\xad\x14\x9dP\x05:@'
p121
tp122
Rp123
ag3
(g7
S'\x1a<]7\xe31P@'
p124
tp125
Rp126
ag3
(g7
S'\xc3\xaa\x9c\x85!~:@'
p127
tp128
Rp129
ag3
(g7
S'MG\xfc4X\r#@'
p130
tp131
Rp132
ag3
(g7
S'.\x0c\xd5\xce\xdenP@'
p133
tp134
Rp135
ag3
(g7
S"\x83\x11\xac\xb5=\xf2'@"
p136
tp137
Rp138
ag3
(g7
S'\x05\xc2|\xabj\xd4S@'
p139
tp140
Rp141
ag3
(g7
S'/\xd3\xa704\xa74@'
p142
tp143
Rp144
ag3
(g7
S'>\xf3\x02\xa2R\x0bP@'
p145
tp146
Rp147
ag3
(g7
S'\xf6\\\x9f9\x87\xf0J@'
p148
tp149
Rp150
ag3
(g7
S'\xf6B\x13S\xf0GY@'
p151
tp152
Rp153
ag3
(g7
S'Bl\xd9\xb1vCu@'
p154
tp155
Rp156
ag3
(g7
S'\x97^\xedn\xa54S@'
p157
tp158
Rp159
ag3
(g7
S"\xcf'!\x1bP\x00B@"
p160
tp161
Rp162
ag3
(g7
S'\x93k\xd7\xbdF\x0eA@'
p163
tp164
Rp165
ag3
(g7
S'\x8a\xae\x85\x94\xf2\x7fK@'
p166
tp167
Rp168
ag3
(g7
S'\x1f\x9a\x9dl\xb5oH@'
p169
tp170
Rp171
ag3
(g7
S'O\x1c\xff\x88\xb19@@'
p172
tp173
Rp174
ag3
(g7
S'\x1d\x89\xd5H\xa0\xa6N@'
p175
tp176
Rp177
ag3
(g7
S'\x8bgU\x0b\x8e\xd6n@'
p178
tp179
Rp180
ag3
(g7
S'}\xc4S\xff\x8f\xcbO@'
p181
tp182
Rp183
ag3
(g7
S'\x12Jj\xe3)\x05C@'
p184
tp185
Rp186
ag3
(g7
S'\xd0\x9a7\xed\xdf5+@'
p187
tp188
Rp189
ag3
(g7
S'\x83\xf6d\xe0\xa6rc@'
p190
tp191
Rp192
aa.