(lp0
(lp1
F4194.936108
aF4208.411158
aF4210.923021
aF4213.067117
aF4217.430828
aF4222.637351
aF4223.439279
aF4226.299091
aF4226.987481
aF4227.387297
aF4228.157937
aF4230.426111
aF4230.823466
aF4235.463786
aF4241.094942
aF4243.261039
aF4253.538831
aF4255.237191
aF4256.253647
aF4258.519951
aF4260.332518
aF4262.612445
aF4266.286458
aF4266.527325
aF4269.942283
aF4276.807189
aF4278.322907
aF4280.567019
aF4281.068158
aF4281.414763
aF4282.897713
aF4283.51823
aF4288.6688
aF4291.809723
aF4295.584873
aF4299.634234
aF4299.839604
aF4300.649946
aF4303.989208
aF4307.176075
aF4308.121805
aF4311.799273
aF4315.254471
aF4318.415661
aF4320.126431
aF4325.274266
aF4328.915443
aF4330.411334
aF4330.84412
aF4332.029855
aF4337.277141
aF4340.895167
aF4342.443971
aF4343.3818
aF4343.951448
aF4344.326495
aa(lp2
cnumpy.core.multiarray
scalar
p3
(cnumpy
dtype
p4
(S'f8'
p5
I0
I1
tp6
Rp7
(I3
S'<'
p8
NNNI-1
I-1
I0
tp9
bS'\xb5N\xc8\xeb\xb1IP@'
p10
tp11
Rp12
ag3
(g7
S'\xd2\x0b\xd8ypNz@'
p13
tp14
Rp15
ag3
(g7
S'\xac-\x1b\xcbj\xa6j@'
p16
tp17
Rp18
ag3
(g7
S'\xe6\xb5\xeb\xcahGP@'
p19
tp20
Rp21
ag3
(g7
S'*A\xf3m\xe2\xe2R@'
p22
tp23
Rp24
ag3
(g7
S'\xd4U\xea\x11\xbb\xd3\x17@'
p25
tp26
Rp27
ag3
(g7
S"\xae\xbe\x9b\xc4'\xf6\\@"
p28
tp29
Rp30
ag3
(g7
S'\xbb\x08\xb2\xfb=\xd8[@'
p31
tp32
Rp33
ag3
(g7
S'|\x85\xe7nY#%@'
p34
tp35
Rp36
ag3
(g7
S'\x1a\x92\xd8s;\xeeR@'
p37
tp38
Rp39
ag3
(g7
S'e\xe1v\xc6K\xdfW@'
p40
tp41
Rp42
ag3
(g7
S'|\xa8]E<\xd9X@'
p43
tp44
Rp45
ag3
(g7
S'\xe9U\xc4#\xd0\xf8 @'
p46
tp47
Rp48
ag3
(g7
S'\xa7x\x8fC\xfaQ-@'
p49
tp50
Rp51
ag3
(g7
S'h925+w8@'
p52
tp53
Rp54
ag3
(g7
S'\xd3\x9e\xe4\xa9\xcc\xe4P@'
p55
tp56
Rp57
ag3
(g7
S',pl\xb45\x1e6@'
p58
tp59
Rp60
ag3
(g7
S'\xa7\xd9\xc2"\xca<M@'
p61
tp62
Rp63
ag3
(g7
S'\x852\x03E0++@'
p64
tp65
Rp66
ag3
(g7
S'\xdb\xfeT\xbfD\xf2E@'
p67
tp68
Rp69
ag3
(g7
S'\xb8\x97\xb8\x87\xf8\xff5@'
p70
tp71
Rp72
ag3
(g7
S'\x0c\xef\xcf#IiE@'
p73
tp74
Rp75
ag3
(g7
S'@\xa0A\x9a[=/@'
p76
tp77
Rp78
ag3
(g7
S'\xf5\xcdZ\xbfy\xd7@@'
p79
tp80
Rp81
ag3
(g7
S'E\xb1j5\t\xabA@'
p82
tp83
Rp84
ag3
(g7
S'}\xa5\xc1\xf1\xeb\x859@'
p85
tp86
Rp87
ag3
(g7
S'\x88[\xe34\xc4\x01\x1b@'
p88
tp89
Rp90
ag3
(g7
S'\xb4\x83\x85\xa0\x10\x08G@'
p91
tp92
Rp93
ag3
(g7
S'\xc7\xbfghb\xc0-@'
p94
tp95
Rp96
ag3
(g7
S'8\x83@\xb6\x8dS)@'
p97
tp98
Rp99
ag3
(g7
S'\x9c\xb4;\x9c2\xd6&@'
p100
tp101
Rp102
ag3
(g7
S'\x8e\xd2s/\x85J4@'
p103
tp104
Rp105
ag3
(g7
S'\x05i^\xeb\xd0\x1d,@'
p106
tp107
Rp108
ag3
(g7
S'/|\xc9\xdb\x87iK@'
p109
tp110
Rp111
ag3
(g7
S'\xa1\x07\xd3(Q\xa8(@'
p112
tp113
Rp114
ag3
(g7
S'\xa5_\x02(\xe0fP@'
p115
tp116
Rp117
ag3
(g7
S'\xe5\x83xs\xea\x131@'
p118
tp119
Rp120
ag3
(g7
S'\xd1\xf9\xe3\xa8\xd4\x9a8@'
p121
tp122
Rp123
ag3
(g7
S'\\\xd8:\xc2\xde\xbbU@'
p124
tp125
Rp126
ag3
(g7
S'\xe7\xb1\\\r:\xa0$@'
p127
tp128
Rp129
ag3
(g7
S'\xbcLUK\xae\xdaP@'
p130
tp131
Rp132
ag3
(g7
S'\xc9y\x81\xbf\xb8\xe3C@'
p133
tp134
Rp135
ag3
(g7
S'\x1b\xdc\xad\x1b\xc2"7@'
p136
tp137
Rp138
ag3
(g7
S'\xc5\x02\xdc\xe8*\xeb1@'
p139
tp140
Rp141
ag3
(g7
S'\xf5\xbe\xee\x0505J@'
p142
tp143
Rp144
ag3
(g7
S'\x90\x06k7\xdbBN@'
p145
tp146
Rp147
ag3
(g7
S'o`ex\x80\x1c+@'
p148
tp149
Rp150
ag3
(g7
S'\\\x10$B"\xcd2@'
p151
tp152
Rp153
ag3
(g7
S'4\xf4Z\x11o\xa9F@'
p154
tp155
Rp156
ag3
(g7
S'\xf0\x8eU\xcaL\x80.@'
p157
tp158
Rp159
ag3
(g7
S"\x082\x07\x1c-\xb3'@"
p160
tp161
Rp162
ag3
(g7
S'\xabf\xda6\x88CE@'
p163
tp164
Rp165
ag3
(g7
S'|\xe8\xf5\x97l\xa9Z@'
p166
tp167
Rp168
ag3
(g7
S'\x8b\xd9\xd4m&\x88b@'
p169
tp170
Rp171
ag3
(g7
S'\xaf\xfa\x89\xa6ro<@'
p172
tp173
Rp174
ag3
(g7
S'!M\xa9r-\xe1J@'
p175
tp176
Rp177
aa.