(lp0
(lp1
F3958.927319
aF3959.299941
aF3962.419438
aF3967.392112
aF3969.002322
aF3972.154338
aF3974.476567
aF3979.355779
aF3980.089346
aF3981.828197
aF3982.102662
aF3988.845145
aF3990.492442
aF3992.053554
aF3992.273486
aF3993.29914
aF3994.549534
aF3994.792091
aF3996.669562
aF3998.952364
aF4000.280454
aF4001.057991
aF4001.893615
aF4003.105728
aF4005.092975
aF4006.380689
aF4008.210288
aF4011.209659
aF4014.716342
aF4019.128807
aF4020.353942
aF4024.80223
aF4029.826137
aF4030.292633
aF4030.842436
aF4032.595736
aF4034.246283
aF4035.460437
aF4036.047864
aF4036.565449
aF4038.804857
aF4041.203396
aF4043.130267
aF4043.395046
aF4045.965436
aF4049.944572
aF4050.887229
aF4054.302003
aF4054.526327
aF4057.940889
aF4059.252861
aF4063.407073
aF4064.331561
aF4067.450978
aF4069.20192
aF4070.23816
aF4072.38482
aF4074.641923
aF4075.503004
aF4075.907164
aF4076.628745
aF4076.943344
aF4083.468911
aF4085.256213
aF4085.433751
aF4086.520592
aF4089.137621
aF4093.392143
aF4093.671618
aF4094.747403
aF4096.076549
aF4097.747286
aF4098.933009
aF4100.341269
aF4102.617755
aF4104.381577
aF4104.837546
aF4107.05032
aF4108.419732
aF4109.323634
aF4115.758823
aF4116.713432
aa(lp2
cnumpy.core.multiarray
scalar
p3
(cnumpy
dtype
p4
(S'f8'
p5
I0
I1
tp6
Rp7
(I3
S'<'
p8
NNNI-1
I-1
I0
tp9
bS'\x1f\x13\n\x12\xb4*x@'
p10
tp11
Rp12
ag3
(g7
S'Y\x9c\xa7\xa4\x1c\xfbs@'
p13
tp14
Rp15
ag3
(g7
S'\xe1\xd1\x10\xa3v\xf0\x87@'
p16
tp17
Rp18
ag3
(g7
S'\xffW\xc6\t\xea\xdbf@'
p19
tp20
Rp21
ag3
(g7
S'w\xa5\xb7\xb4M\xe4\x80@'
p22
tp23
Rp24
ag3
(g7
S'rb:#]\xe2\x82@'
p25
tp26
Rp27
ag3
(g7
S'\xc2\x7fR\x92M\x1dL@'
p28
tp29
Rp30
ag3
(g7
S'?uc&d\xb73@'
p31
tp32
Rp33
ag3
(g7
S'x\x18os\xd3\x9ec@'
p34
tp35
Rp36
ag3
(g7
S'G2\x88\xee-n|@'
p37
tp38
Rp39
ag3
(g7
S'\xfe_\xa9jM\xcea@'
p40
tp41
Rp42
ag3
(g7
S'sK\x0b\x94\x06\xecq@'
p43
tp44
Rp45
ag3
(g7
S'\xd1\xcag\xf2\x8f\x1bn@'
p46
tp47
Rp48
ag3
(g7
S'\xf2\xccy\xfc\x93\x97Y@'
p49
tp50
Rp51
ag3
(g7
S'\xc1\x8bW3S\xacD@'
p52
tp53
Rp54
ag3
(g7
S'\xc5|l{\x82\x02c@'
p55
tp56
Rp57
ag3
(g7
S'8\xa0\xa7+\x83\xea`@'
p58
tp59
Rp60
ag3
(g7
S'3\xd6\xac8&wg@'
p61
tp62
Rp63
ag3
(g7
S'\xaf\xef\xe4\xb8\xc5\xfa\x88@'
p64
tp65
Rp66
ag3
(g7
S')\xbf\xf7g\xcf!m@'
p67
tp68
Rp69
ag3
(g7
S'V\xae\xb4H\xf6\xdcU@'
p70
tp71
Rp72
ag3
(g7
S'$\xb0\x86<\xadEi@'
p73
tp74
Rp75
ag3
(g7
S'\xfd5\x9d4T\x13;@'
p76
tp77
Rp78
ag3
(g7
S'\xa2\n\xa5\x11?\xc5\x11@'
p79
tp80
Rp81
ag3
(g7
S'\x03\x13Wr\xf7aT@'
p82
tp83
Rp84
ag3
(g7
S'L\xb7\x15\r\xc8\x93A@'
p85
tp86
Rp87
ag3
(g7
S'\xa3\x93k:F_0@'
p88
tp89
Rp90
ag3
(g7
S'\x01\xfd(\xda\xb1\xa9\xf8?'
p91
tp92
Rp93
ag3
(g7
S's\x83\xe5i\xa0u]@'
p94
tp95
Rp96
ag3
(g7
S'q\xb2l\xc8\x867E@'
p97
tp98
Rp99
ag3
(g7
S'\xc8q\x94<A\xdfG@'
p100
tp101
Rp102
ag3
(g7
S'\x1e\xb4\xf0\xa99;h@'
p103
tp104
Rp105
ag3
(g7
S't\x92\xe8\xb2\xd9-a@'
p106
tp107
Rp108
ag3
(g7
S'\xe9\xce\x88n\xadOg@'
p109
tp110
Rp111
ag3
(g7
S'\x98\xe2o\xb6\x91\xe8T@'
p112
tp113
Rp114
ag3
(g7
S'\x83\xe2\x05\xfa.K+@'
p115
tp116
Rp117
ag3
(g7
S'\xbf\xd7\x88%{\xaf7@'
p118
tp119
Rp120
ag3
(g7
S'HHp\x8c\x83"X@'
p121
tp122
Rp123
ag3
(g7
S'~\x97L\x03>3R@'
p124
tp125
Rp126
ag3
(g7
S'\xa4/\xcc\xa8\x82\x7f^@'
p127
tp128
Rp129
ag3
(g7
S'\x04&\xea\xac@\xe3P@'
p130
tp131
Rp132
ag3
(g7
S'\x91\xe6z\xa7^\xbcS@'
p133
tp134
Rp135
ag3
(g7
S'N\x99Qj\x1e\xe6S@'
p136
tp137
Rp138
ag3
(g7
S'\x19\xe2E.U\xe7S@'
p139
tp140
Rp141
ag3
(g7
S'*O\xb4\xe7\xb6\\I@'
p142
tp143
Rp144
ag3
(g7
S'\x8d*\xac\xf7\xcd\xe0\xec?'
p145
tp146
Rp147
ag3
(g7
S'6\x07\xa5\xccJb0@'
p148
tp149
Rp150
ag3
(g7
S'lD\xd5(\xa5\x10,@'
p151
tp152
Rp153
ag3
(g7
S'V(\xa8\x1c\xbe\xd8 @'
p154
tp155
Rp156
ag3
(g7
S'`\x85E\x12\xef\x14U@'
p157
tp158
Rp159
ag3
(g7
S'\xa9\x18\xc3\xc6L\x98J@'
p160
tp161
Rp162
ag3
(g7
S'z\xf7\x0b&\xd1p3@'
p163
tp164
Rp165
ag3
(g7
S'\x8c\x04|\xfb\xcc\x84X@'
p166
tp167
Rp168
ag3
(g7
S'\xcfA\xa8\xe1\r\x7f?@'
p169
tp170
Rp171
ag3
(g7
S'\xd7u!\xe6*7F@'
p172
tp173
Rp174
ag3
(g7
S'F~\x16\xf5\x96\xc2Z@'
p175
tp176
Rp177
ag3
(g7
S'\xe7\x11\xb2E\xafcP@'
p178
tp179
Rp180
ag3
(g7
S'\x7f\xf8\xf7\xc4f}]@'
p181
tp182
Rp183
ag3
(g7
S'?\x15\xd0H\xdb\xb4-@'
p184
tp185
Rp186
ag3
(g7
S';\xad\xb0\xecl\xd5`@'
p187
tp188
Rp189
ag3
(g7
S'0\xc08\xc1Z\xe2)@'
p190
tp191
Rp192
ag3
(g7
S'\x94\xddw{\xf3\x08=@'
p193
tp194
Rp195
ag3
(g7
S'\x9f=4:\x06\x84:@'
p196
tp197
Rp198
ag3
(g7
S'|\x9e\xb1%\xe7\xc3&@'
p199
tp200
Rp201
ag3
(g7
S'\x7fv\xde\x06\xf5\x9cX@'
p202
tp203
Rp204
ag3
(g7
S"\xb2_'p\x0b\xd0\x14@"
p205
tp206
Rp207
ag3
(g7
S'\xcf\x96\xa1E\xc7{>@'
p208
tp209
Rp210
ag3
(g7
S'<\x9c\r\xd0L\xbem@'
p211
tp212
Rp213
ag3
(g7
S'\xe4\xa5\xa8[S\xa5C@'
p214
tp215
Rp216
ag3
(g7
S'\x15_9\x92~\xcaU@'
p217
tp218
Rp219
ag3
(g7
S'\xa4\x01\xfb\xbbtO\x17@'
p220
tp221
Rp222
ag3
(g7
S'L\xdc\xd5\xd0\xa5m\x1b@'
p223
tp224
Rp225
ag3
(g7
S')\xf5\xff\xb1)2\x16@'
p226
tp227
Rp228
ag3
(g7
S'\xfd\x7f\x82S3B4@'
p229
tp230
Rp231
ag3
(g7
S',\x9d\x900\xefX=@'
p232
tp233
Rp234
ag3
(g7
S'Z\xd3]\x94\x8dDR@'
p235
tp236
Rp237
ag3
(g7
S'=\x15!\x12\xc5\xb3S@'
p238
tp239
Rp240
ag3
(g7
S'\xaa}v\xbf\xc0\xf1:@'
p241
tp242
Rp243
ag3
(g7
S'\xfa\xce\x0c[\xcbMM@'
p244
tp245
Rp246
ag3
(g7
S'\x02|C\xb2\xbc|C@'
p247
tp248
Rp249
ag3
(g7
S'\xd1Vy3\xee\x0e\xee?'
p250
tp251
Rp252
ag3
(g7
S"\xaf\x00\xd9'zFV@"
p253
tp254
Rp255
aa.