(lp0
(lp1
F5039.230522
aF5045.248316
aF5047.043744
aF5050.784272
aF5051.888619
aF5057.986289
aF5059.860949
aF5061.656103
aF5062.932389
aF5063.514632
aF5064.601734
aF5064.944882
aF5065.192056
aF5066.135402
aF5066.777182
aF5067.137803
aF5081.446377
aF5084.994251
aF5095.855643
aF5096.484919
aF5098.043343
aF5101.129448
aF5111.277808
aF5115.044494
aF5125.950277
aF5128.490403
aF5134.746459
aF5137.473905
aF5145.037484
aF5145.30861
aF5146.055581
aF5148.211631
aF5149.206958
aF5154.242014
aF5158.604754
aF5161.539521
aF5162.285814
aF5163.458074
aF5165.772981
aF5168.585992
aF5173.672033
aF5174.799363
aF5175.325212
aF5175.911809
aF5183.990252
aF5184.454017
aF5186.413027
aF5190.871176
aF5194.457234
aF5195.813306
aF5197.235729
aF5203.846874
aF5205.152904
aF5209.724726
aF5211.230608
aF5216.59658
aF5218.527844
aF5219.11026
aF5220.927451
aF5221.862481
aF5228.224679
aF5230.500431
aF5233.225429
aF5238.813071
aF5240.196395
aa(lp2
cnumpy.core.multiarray
scalar
p3
(cnumpy
dtype
p4
(S'f8'
p5
I0
I1
tp6
Rp7
(I3
S'<'
p8
NNNI-1
I-1
I0
tp9
bS'\xce\xb61N\t\xb2\\@'
p10
tp11
Rp12
ag3
(g7
S'KYpc\x10\xd2a@'
p13
tp14
Rp15
ag3
(g7
S'`\x16mw\xf5\xed+@'
p16
tp17
Rp18
ag3
(g7
S"\xba_\xbe\xe3\xb7'U@"
p19
tp20
Rp21
ag3
(g7
S'\x80\xd2@\x93\x7f\xcdO@'
p22
tp23
Rp24
ag3
(g7
S':\x8dX\xc4U\x9a(@'
p25
tp26
Rp27
ag3
(g7
S'\xf46S\xf3^aO@'
p28
tp29
Rp30
ag3
(g7
S"\x854a'*IR@"
p31
tp32
Rp33
ag3
(g7
S'\xefp\xf9\x9a\xbc3W@'
p34
tp35
Rp36
ag3
(g7
S'\x11\xf6\r\xcb\x05yQ@'
p37
tp38
Rp39
ag3
(g7
S'\x04\x1dt\xb0\xf0\x9d\xf2?'
p40
tp41
Rp42
ag3
(g7
S'K\x93\xd2\xf0`v\x15@'
p43
tp44
Rp45
ag3
(g7
S'8d\xd6\x99\xcb\x9f+@'
p46
tp47
Rp48
ag3
(g7
S'\x9b\xbe\x90\xcbi\xefD@'
p49
tp50
Rp51
ag3
(g7
S'\xd2\xa5\x06\xf6\x8fO8@'
p52
tp53
Rp54
ag3
(g7
S'\x1dm\xef\xfd\x0e\xa4\x0c@'
p55
tp56
Rp57
ag3
(g7
S'-{\x87N-OO@'
p58
tp59
Rp60
ag3
(g7
S'TL\x15\x91o\x16_@'
p61
tp62
Rp63
ag3
(g7
S'\xc9\x13\xe1\x9f\x8f\xc03@'
p64
tp65
Rp66
ag3
(g7
S'\xff\xe6\xee\xae\xe3\x96V@'
p67
tp68
Rp69
ag3
(g7
S'\x12\xae\xc8n;C1@'
p70
tp71
Rp72
ag3
(g7
S'\xc5iO(\xd0\x94+@'
p73
tp74
Rp75
ag3
(g7
S'\xc3@\xbf{7\ta@'
p76
tp77
Rp78
ag3
(g7
S",k\x9d!\x9e\x96'@"
p79
tp80
Rp81
ag3
(g7
S'\x9es\xfd\x81\xad&V@'
p82
tp83
Rp84
ag3
(g7
S'\x07\x95@\xc8\n\xa9\x14@'
p85
tp86
Rp87
ag3
(g7
S'\xee\xe5\xe3\x93h\xf5M@'
p88
tp89
Rp90
ag3
(g7
S'`_\x0b\x03\xab\xb9f@'
p91
tp92
Rp93
ag3
(g7
S'\x98\x86\xe80\\\xd8y@'
p94
tp95
Rp96
ag3
(g7
S"2\xf5\xe8\xc8'a&@"
p97
tp98
Rp99
ag3
(g7
S'\xcc>\xb1\xa3\x03gC@'
p100
tp101
Rp102
ag3
(g7
S'\x94v8\x8a_r{@'
p103
tp104
Rp105
ag3
(g7
S'f\x18\xd4\\\xef\x1fJ@'
p106
tp107
Rp108
ag3
(g7
S'E\xc7\xbf\xa9\x96\x1bU@'
p109
tp110
Rp111
ag3
(g7
S'\xf7_E\xb8\xdeFI@'
p112
tp113
Rp114
ag3
(g7
S'2\xf5\xb9\x08`\x8dE@'
p115
tp116
Rp117
ag3
(g7
S'\xd0\x9e\x88\xb2\xd5\x96;@'
p118
tp119
Rp120
ag3
(g7
S'\x06`\x9b>s\xf2@@'
p121
tp122
Rp123
ag3
(g7
S'#\xf0\xb1nT\x8c?@'
p124
tp125
Rp126
ag3
(g7
S'\x07&Z\xb1\x84<\x81@'
p127
tp128
Rp129
ag3
(g7
S'\xbf`W\xb3V\xf2E@'
p130
tp131
Rp132
ag3
(g7
S'\xf0\xab:\xe4k#H@'
p133
tp134
Rp135
ag3
(g7
S'\xed\x9f\xec\x0e\xc1\xef\x02@'
p136
tp137
Rp138
ag3
(g7
S'\x90\xf8{\x17\xc9\x8f"@'
p139
tp140
Rp141
ag3
(g7
S':J\x93\xd5\xe9eO@'
p142
tp143
Rp144
ag3
(g7
S'\x18b\xd3\xac\xfe\xe36@'
p145
tp146
Rp147
ag3
(g7
S'\x81/|o\x85\xd2a@'
p148
tp149
Rp150
ag3
(g7
S'_\xe1\xa8/\xe3\x1dh@'
p151
tp152
Rp153
ag3
(g7
S'\x1c\xcfH\xa50\xf78@'
p154
tp155
Rp156
ag3
(g7
S'\xfa\xde\xab\xbejlE@'
p157
tp158
Rp159
ag3
(g7
S'?\xc0\xea6O\xa3Y@'
p160
tp161
Rp162
ag3
(g7
S'e!I\xb9\x95\xf2e@'
p163
tp164
Rp165
ag3
(g7
S'+\xfb\xcc\xa7\x96\xe0\xd5?'
p166
tp167
Rp168
ag3
(g7
S':\xe65-!\xe6O@'
p169
tp170
Rp171
ag3
(g7
S'\xf2\xce\x88\xba\xa6\x0bL@'
p172
tp173
Rp174
ag3
(g7
S'%o\x81\x99\xcf\x01Z@'
p175
tp176
Rp177
ag3
(g7
S'\xa8_[+\x1c\x8f4@'
p178
tp179
Rp180
ag3
(g7
S'\xc9*$|,\xfeG@'
p181
tp182
Rp183
ag3
(g7
S'r\xca\xbf\xd0Q\xc3Y@'
p184
tp185
Rp186
ag3
(g7
S'z\xcf\xcf\xc6DrP@'
p187
tp188
Rp189
ag3
(g7
S'\x8bd\x99\xdc\n\x83=@'
p190
tp191
Rp192
ag3
(g7
S'\x9c\xec\x18\xa8R f@'
p193
tp194
Rp195
ag3
(g7
S'\xc5T\xc9\xbc\xb5\x15+@'
p196
tp197
Rp198
ag3
(g7
S'J\xd1r\xde\x9a\x05`@'
p199
tp200
Rp201
ag3
(g7
S'\xce\x9a\xe5\x00vpH@'
p202
tp203
Rp204
aa.