(lp0
(lp1
F7937.73347
aF7941.725859
aF7956.973426
aF7972.595942
aF7974.159111
aF7978.973099
aF7987.973076
aF7993.680797
aF8030.200402
aF8032.431249
aF8037.217764
aF8046.116362
aF8053.307955
aF8062.630368
aF8129.405086
aF8143.137909
aF8143.504512
aF8159.727615
aF8163.120952
aF8169.786443
aF8186.911262
aF8194.394268
aF8207.478411
aF8214.147185
aF8231.406828
aa(lp2
cnumpy.core.multiarray
scalar
p3
(cnumpy
dtype
p4
(S'f8'
p5
I0
I1
tp6
Rp7
(I3
S'<'
p8
NNNI-1
I-1
I0
tp9
bS'\xdas\xa0R\x10\x83\\@'
p10
tp11
Rp12
ag3
(g7
S'\x08}l=\xae\x13E@'
p13
tp14
Rp15
ag3
(g7
S'\x9d]u\xfd\x10\xd4o@'
p16
tp17
Rp18
ag3
(g7
S'\x85)\xed\xccXJX@'
p19
tp20
Rp21
ag3
(g7
S'\x08\xac\xba\xbf\xf7\xb9G@'
p22
tp23
Rp24
ag3
(g7
S'\x8d\xc5\x9c\x00q\xcbR@'
p25
tp26
Rp27
ag3
(g7
S"'\xf5\xf1\x01\xa9\xa9D@"
p28
tp29
Rp30
ag3
(g7
S'0O\xa4~\xb8O]@'
p31
tp32
Rp33
ag3
(g7
S'\x9e\xcd\xb0\xd4\x02\tn@'
p34
tp35
Rp36
ag3
(g7
S'\xff\x80.I\xb5\xb9o@'
p37
tp38
Rp39
ag3
(g7
S'\xf0\xd1\xd6\x1b^\x19\x17@'
p40
tp41
Rp42
ag3
(g7
S'\xa2\xbc~5X\xc2;@'
p43
tp44
Rp45
ag3
(g7
S'\x03\r\x9e\xd1h\x93g@'
p46
tp47
Rp48
ag3
(g7
S'H7\x92\x9bA+v@'
p49
tp50
Rp51
ag3
(g7
S'\n\xd2\xeb\x8cx\xf2t@'
p52
tp53
Rp54
ag3
(g7
S'Bv~"\xbf~\\@'
p55
tp56
Rp57
ag3
(g7
S'\xed>F\x0c:Ls@'
p58
tp59
Rp60
ag3
(g7
S'\xc7R\x11\xee\x04\xbce@'
p61
tp62
Rp63
ag3
(g7
S'\xd6|e\x00\xb8\xa6i@'
p64
tp65
Rp66
ag3
(g7
S'F\xe4BK\xb9Z^@'
p67
tp68
Rp69
ag3
(g7
S'\x16I\xb5[\x87\xf8\\@'
p70
tp71
Rp72
ag3
(g7
S'\x0ch\x1bh\x92\xfb\x8a@'
p73
tp74
Rp75
ag3
(g7
S"'\xbc\x0f\x17 \xe5\x81@"
p76
tp77
Rp78
ag3
(g7
S'v\xaacx\xa2\xebR@'
p79
tp80
Rp81
ag3
(g7
S'\xefU\n\xba\xe7C<@'
p82
tp83
Rp84
aa.