(lp0
(lp1
F4820.884994
aF4823.605718
aF4823.996682
aF4829.796917
aF4831.120944
aF4831.597425
aF4832.802415
aF4840.475242
aF4840.84274
aF4845.163006
aF4848.362742
aF4849.862041
aF4850.439875
aF4852.868708
aF4858.332526
aF4868.880725
aF4871.28859
aF4874.364234
aF4876.495337
aF4878.00946
aF4878.733135
aF4881.204677
aF4881.85397
aF4882.243739
aF4887.948196
aF4888.261987
aF4889.490314
aF4892.759664
aF4893.445228
aF4902.792955
aF4910.156909
aF4919.816059
aF4927.299697
aF4929.085714
aF4933.209697
aF4937.829231
aF4939.641603
aF4946.662819
aF4950.626354
aF4961.726585
aF4965.732215
aF4968.755634
aF4980.185897
aF4980.950241
aF4982.486931
aF4985.372021
aF4987.146715
aF4989.308372
aF4992.633479
aF4993.749146
aF4994.105932
aF5002.097356
aF5003.598696
aF5009.335298
aa(lp2
cnumpy.core.multiarray
scalar
p3
(cnumpy
dtype
p4
(S'f8'
p5
I0
I1
tp6
Rp7
(I3
S'<'
p8
NNNI-1
I-1
I0
tp9
bS'}\x8c&\x8dA\xc3B@'
p10
tp11
Rp12
ag3
(g7
S'\x9e\x16d(\xd9*q@'
p13
tp14
Rp15
ag3
(g7
S'\xbf\xf7\x06[R\x1eP@'
p16
tp17
Rp18
ag3
(g7
S'\x0f\xf7pW\x08Gv@'
p19
tp20
Rp21
ag3
(g7
S'".^\x95)\xdaT@'
p22
tp23
Rp24
ag3
(g7
S'2\xc5\x1er\xb7\x9cE@'
p25
tp26
Rp27
ag3
(g7
S'v\xf0)\x98r\x1e^@'
p28
tp29
Rp30
ag3
(g7
S'\x98\xa81G]\x1b>@'
p31
tp32
Rp33
ag3
(g7
S'\xc9\xf4\xc3\xfauzX@'
p34
tp35
Rp36
ag3
(g7
S's\x9e\xe0\xac\x88\xe4]@'
p37
tp38
Rp39
ag3
(g7
S'u\xa6\x83\x9bg\xadA@'
p40
tp41
Rp42
ag3
(g7
S'\xc6,C\xa9a!X@'
p43
tp44
Rp45
ag3
(g7
S'\xdf\xbe\xacQ\xf75G@'
p46
tp47
Rp48
ag3
(g7
S'/\xc7\x17\x01\xba\xc86@'
p49
tp50
Rp51
ag3
(g7
S'\x9b\x02\x99\xa69\x94P@'
p52
tp53
Rp54
ag3
(g7
S'\x9a\tw\xfc\xd5+T@'
p55
tp56
Rp57
ag3
(g7
S'\x93\xbf\x9f\xc6C=;@'
p58
tp59
Rp60
ag3
(g7
S"\xc8V\xea'\xf0)\xb9?"
p61
tp62
Rp63
ag3
(g7
S'o\x1ejYAw5@'
p64
tp65
Rp66
ag3
(g7
S'\x98\xc9\xfa\x9a0yR@'
p67
tp68
Rp69
ag3
(g7
S'\xac\x99\xb2\x15$\xb5K@'
p70
tp71
Rp72
ag3
(g7
S'\xb2\xab\xa4\xa4\x96\xafR@'
p73
tp74
Rp75
ag3
(g7
S'\xe9Y\x07\x0c\xb3\x90\x13@'
p76
tp77
Rp78
ag3
(g7
S'39\x96\xeb\xd6\xacQ@'
p79
tp80
Rp81
ag3
(g7
S'vy\x15De9Q@'
p82
tp83
Rp84
ag3
(g7
S'^\x96\xfa\x0c\x89p=@'
p85
tp86
Rp87
ag3
(g7
S',h\x01_\xdd\xbbP@'
p88
tp89
Rp90
ag3
(g7
S':c\xe9bB<a@'
p91
tp92
Rp93
ag3
(g7
S'\x14\xcf\xbe\xe1\xc3(*@'
p94
tp95
Rp96
ag3
(g7
S'\x92a\x99\xf8,\x10"@'
p97
tp98
Rp99
ag3
(g7
S'\x05Z\x0b\x7fgj9@'
p100
tp101
Rp102
ag3
(g7
S'\xac\x14\xe616\x16A@'
p103
tp104
Rp105
ag3
(g7
S'd,z\x14V\xedX@'
p106
tp107
Rp108
ag3
(g7
S'9KZ\xa3\xa5\xe7J@'
p109
tp110
Rp111
ag3
(g7
S'4@\xd6p\xfbsJ@'
p112
tp113
Rp114
ag3
(g7
S'\x1a\xf0\xa4D\xb7\xc37@'
p115
tp116
Rp117
ag3
(g7
S'#\xba\xd5\x97\xa4\xc9L@'
p118
tp119
Rp120
ag3
(g7
S'\x17Dn\xc5\xacE]@'
p121
tp122
Rp123
ag3
(g7
S"\xef\x86\xbd\xae'\xa99@"
p124
tp125
Rp126
ag3
(g7
S'HC\x1e\xab\x94mF@'
p127
tp128
Rp129
ag3
(g7
S'\xe8f\x91b\x13\xb4[@'
p130
tp131
Rp132
ag3
(g7
S'\xf7\xfb\xed\x15\xf6\tE@'
p133
tp134
Rp135
ag3
(g7
S'\x15\xc3\xbf\xdf\xee\xa7-@'
p136
tp137
Rp138
ag3
(g7
S'\x87\xc6\xc5\xaaH\xc1W@'
p139
tp140
Rp141
ag3
(g7
S'\x98\x9e\x1f\x07 \xe2U@'
p142
tp143
Rp144
ag3
(g7
S'\xbc\x0e\xeeT\xe7\x18\xe5?'
p145
tp146
Rp147
ag3
(g7
S'\x8f\x03\xea\xcc\x9d\xe9^@'
p148
tp149
Rp150
ag3
(g7
S'\xec\xbc/\x15S\xdeW@'
p151
tp152
Rp153
ag3
(g7
S'\xec\xbd\xff\xfd\x91Tq@'
p154
tp155
Rp156
ag3
(g7
S'\xab\x1cl\xd2o\xe2U@'
p157
tp158
Rp159
ag3
(g7
S'\xbbd\xa2\x86meE@'
p160
tp161
Rp162
ag3
(g7
S'Y\x1e\xe7J+GC@'
p163
tp164
Rp165
ag3
(g7
S'"\xd4AS,:)@'
p166
tp167
Rp168
ag3
(g7
S'\xff\xe5\x1cQX\xc5D@'
p169
tp170
Rp171
aa.