(lp0
(lp1
F4030.292633
aF4030.842436
aF4032.595736
aF4034.246283
aF4035.460437
aF4036.047864
aF4036.565449
aF4038.804857
aF4043.130267
aF4043.395046
aF4044.418042
aF4045.965436
aF4049.944572
aF4050.887229
aF4054.302003
aF4054.526327
aF4057.940889
aF4059.252861
aF4063.407073
aF4064.331561
aF4067.450978
aF4069.20192
aF4070.23816
aF4072.38482
aF4074.641923
aF4075.503004
aF4075.907164
aF4076.628745
aF4076.943344
aF4083.468911
aF4085.256213
aF4085.433751
aF4086.520592
aF4089.137621
aF4093.392143
aF4093.671618
aF4094.747403
aF4096.076549
aF4097.747286
aF4098.933009
aF4100.341269
aF4102.617755
aF4104.381577
aF4104.837546
aF4107.05032
aF4108.419732
aF4109.323634
aF4115.758823
aF4116.713432
aF4128.640145
aF4130.324641
aF4131.002095
aF4134.323895
aF4135.479805
aF4138.040573
aF4142.700927
aF4147.540441
aF4148.181686
aF4156.085726
aF4161.738871
aF4162.508771
aF4165.766346
aF4167.865471
aF4168.63406
aF4170.53309
aF4171.341017
aF4178.059409
aF4178.848605
aF4181.883406
aa(lp2
cnumpy.core.multiarray
scalar
p3
(cnumpy
dtype
p4
(S'f8'
p5
I0
I1
tp6
Rp7
(I3
S'<'
p8
NNNI-1
I-1
I0
tp9
bS'X\xf0\xc3\xce\xd1\xd5l@'
p10
tp11
Rp12
ag3
(g7
S'\xde\x93\x9b@\xa1\xa8\\@'
p13
tp14
Rp15
ag3
(g7
S"\x84_'\x0f\xf7\xdd]@"
p16
tp17
Rp18
ag3
(g7
S'\xdb\xa4Mt\xf9qn@'
p19
tp20
Rp21
ag3
(g7
S'\xe5l\xe1\xd1\xa0Z@@'
p22
tp23
Rp24
ag3
(g7
S'JsC\xe4\xd49n@'
p25
tp26
Rp27
ag3
(g7
S'\xbe\xbdhl8\x1bb@'
p28
tp29
Rp30
ag3
(g7
S'c\xe8Qb\xa6\x7fw@'
p31
tp32
Rp33
ag3
(g7
S'M|\xf8\xc6\x1a\r|@'
p34
tp35
Rp36
ag3
(g7
S'\xb04\xf2\x1aE+r@'
p37
tp38
Rp39
ag3
(g7
S'.\xa6\xa2\xf7-\x94T@'
p40
tp41
Rp42
ag3
(g7
S',\xd1\xc7\xd9\x9b2{@'
p43
tp44
Rp45
ag3
(g7
S'\x07\x15\x8b]J\x9dx@'
p46
tp47
Rp48
ag3
(g7
S'D\x0c\x15]\xbf\rs@'
p49
tp50
Rp51
ag3
(g7
S'"\xfe\xbb\xccaRd@'
p52
tp53
Rp54
ag3
(g7
S'i\x08\xa1\xd4\xfb\xb29@'
p55
tp56
Rp57
ag3
(g7
S'\xd9\xc4\xd2\xe8\xab\xac\x80@'
p58
tp59
Rp60
ag3
(g7
S'\xddDu\x99\xfb\xf03@'
p61
tp62
Rp63
ag3
(g7
S'D\x8eX\x7f\xaf\xf60@'
p64
tp65
Rp66
ag3
(g7
S'\xcf-uh\xc9\xa4N@'
p67
tp68
Rp69
ag3
(g7
S'J\x98\xb4C\xc7\x84V@'
p70
tp71
Rp72
ag3
(g7
S'sI\x05K\x93\x7f*@'
p73
tp74
Rp75
ag3
(g7
S'Q\xdb\x1b\xc2\xda\x80i@'
p76
tp77
Rp78
ag3
(g7
S'\xf3\xc6\xceD"\x99P@'
p79
tp80
Rp81
ag3
(g7
S'K\xef\xc3\xa7.\x1e0@'
p82
tp83
Rp84
ag3
(g7
S'\x9d\x8c9\xcb@\x00K@'
p85
tp86
Rp87
ag3
(g7
S'\xac\xa5\xb0\xeb\xfb\xde\x1f@'
p88
tp89
Rp90
ag3
(g7
S'E\xb3\xce>\xab\\V@'
p91
tp92
Rp93
ag3
(g7
S'4\xd3\x07\x0f\xa6\x95\\@'
p94
tp95
Rp96
ag3
(g7
S'\xb88\x93\x01Z\x07 @'
p97
tp98
Rp99
ag3
(g7
S'4\x81\xcd\x97\x8825@'
p100
tp101
Rp102
ag3
(g7
S"V\xd6\xb2\x84\xf7\x1e'@"
p103
tp104
Rp105
ag3
(g7
S'\x02FV^s\rB@'
p106
tp107
Rp108
ag3
(g7
S'\xf4\xdaU\xa5\x87\xe4P@'
p109
tp110
Rp111
ag3
(g7
S'0\x8f\\\xad\xb4Gi@'
p112
tp113
Rp114
ag3
(g7
S'p59U\xaa\x085@'
p115
tp116
Rp117
ag3
(g7
S'\xca\x07\x851\xaf\xd8G@'
p118
tp119
Rp120
ag3
(g7
S'\xf6n;\xc3\x18}Z@'
p121
tp122
Rp123
ag3
(g7
S'\xfd\x1c\x01\xd9\x90\x01\x11@'
p124
tp125
Rp126
ag3
(g7
S'\x9e\xf6\xe8\xa6D\\L@'
p127
tp128
Rp129
ag3
(g7
S's\xc4\xa7\xd8\xd0\xce3@'
p130
tp131
Rp132
ag3
(g7
S'\x07\x10\xb6\x81\xa7\x1d2@'
p133
tp134
Rp135
ag3
(g7
S'\x1d4\x8cn\xd9\xe4<@'
p136
tp137
Rp138
ag3
(g7
S'\x19\xfa\x1e\x16\x87\x1c\t@'
p139
tp140
Rp141
ag3
(g7
S'\x93\xc8\t\xb8\x8c\x17A@'
p142
tp143
Rp144
ag3
(g7
S'\x97\x98\x94t\xbc\x14\x12@'
p145
tp146
Rp147
ag3
(g7
S'W\x19\xe3\x87\xf4\xc3C@'
p148
tp149
Rp150
ag3
(g7
S'\x9cq2\xd0\xe0q&@'
p151
tp152
Rp153
ag3
(g7
S'2\x7f\xd4B\xaa\xc3I@'
p154
tp155
Rp156
ag3
(g7
S'L\x9fq\xc6\xa6\xa6&@'
p157
tp158
Rp159
ag3
(g7
S'u\xda\xc7\x7f\xc3\x1a>@'
p160
tp161
Rp162
ag3
(g7
S'o\x1d\x02[\xad\xf57@'
p163
tp164
Rp165
ag3
(g7
S'\x0f[j\x9dcY2@'
p166
tp167
Rp168
ag3
(g7
S'Bt\xf6\xf1W\x1f7@'
p169
tp170
Rp171
ag3
(g7
S'/#qh\xce\x02P@'
p172
tp173
Rp174
ag3
(g7
S'rC7+\xf9:C@'
p175
tp176
Rp177
ag3
(g7
S'%j\xcb\xaa\xcckt@'
p178
tp179
Rp180
ag3
(g7
S' \xa2\x8a\xd6s\xb7W@'
p181
tp182
Rp183
ag3
(g7
S"\x11\x98\xc5'J\x9dB@"
p184
tp185
Rp186
ag3
(g7
S'\xb9h\x7f\xd3\xb9FD@'
p187
tp188
Rp189
ag3
(g7
S'jq\xfa\xae\xc8\x12_@'
p190
tp191
Rp192
ag3
(g7
S'\x0eW\xc3 \xe7\xd9O@'
p193
tp194
Rp195
ag3
(g7
S'\xc0"l\x94\x9a\xc5e@'
p196
tp197
Rp198
ag3
(g7
S'\xe5"\xf2\xf5&\xd5F@'
p199
tp200
Rp201
ag3
(g7
S'<uoA\xf1\xe8I@'
p202
tp203
Rp204
ag3
(g7
S'\xb3;\x08D\xb7\x06%@'
p205
tp206
Rp207
ag3
(g7
S'g\xbcX\xddx\xf6"@'
p208
tp209
Rp210
ag3
(g7
S'@71\x11\xc84;@'
p211
tp212
Rp213
ag3
(g7
S'\x05)4\x87m\xe80@'
p214
tp215
Rp216
aa.