(lp0
(lp1
F9664.69825
aF9678.80832
aF9700.563011
aF9739.768676
aF9746.462788
aF9750.13498
aF9758.636436
aF9773.567411
aF9796.200157
aF9812.697557
aF9814.420948
aF9826.449598
aF9833.42312
aF9849.458145
aF9854.060998
aF9855.742013
aF9905.885822
aF9906.391733
aF9949.150321
aF9951.088582
aF9952.805344
aF9967.042909
aF9970.462392
aF9985.049933
aF9987.635075
aa(lp2
cnumpy.core.multiarray
scalar
p3
(cnumpy
dtype
p4
(S'f8'
p5
I0
I1
tp6
Rp7
(I3
S'<'
p8
NNNI-1
I-1
I0
tp9
bS'\x1d\x94\x9del\xd5S@'
p10
tp11
Rp12
ag3
(g7
S'Z=\xa1{\xd4Cl@'
p13
tp14
Rp15
ag3
(g7
S'\x934Ct\xd2Tj@'
p16
tp17
Rp18
ag3
(g7
S'B\x99N\x8c:\xffn@'
p19
tp20
Rp21
ag3
(g7
S'\xe9\xa9\xd1c&\x86R@'
p22
tp23
Rp24
ag3
(g7
S'-\x1f\x0bN\xff\x80q@'
p25
tp26
Rp27
ag3
(g7
S'z\x19\xf7\xb9\x8a\rO@'
p28
tp29
Rp30
ag3
(g7
S'\xdaRQv\xd8\xcdC@'
p31
tp32
Rp33
ag3
(g7
S'c,\x17\x1c\xa2\x0bl@'
p34
tp35
Rp36
ag3
(g7
S'\xd2\x03K\x8a\xd9\x12E@'
p37
tp38
Rp39
ag3
(g7
S'\xcc\xef\xc4?,\xdaU@'
p40
tp41
Rp42
ag3
(g7
S'a?;\xcf\xa2*+@'
p43
tp44
Rp45
ag3
(g7
S'\xef\x1b1\xba\x93\xa0W@'
p46
tp47
Rp48
ag3
(g7
S'\xf7E\xef:\x07\xbd<@'
p49
tp50
Rp51
ag3
(g7
S'_\xdf0Kq\x19P@'
p52
tp53
Rp54
ag3
(g7
S'\x81k^7\xc8/!@'
p55
tp56
Rp57
ag3
(g7
S'\xa1\x858\x82\xd5[#@'
p58
tp59
Rp60
ag3
(g7
S'Owy!\x82,2@'
p61
tp62
Rp63
ag3
(g7
S'\x18\xa2IH\x07/X@'
p64
tp65
Rp66
ag3
(g7
S'v\xb7\x0cz\x9b\xcb&@'
p67
tp68
Rp69
ag3
(g7
S'\xc3\xcdx,f\xd5U@'
p70
tp71
Rp72
ag3
(g7
S"\xb8'\xd6\xe8\x08&;@"
p73
tp74
Rp75
ag3
(g7
S'\xde\xea\x0cM\xfa\xbbC@'
p76
tp77
Rp78
ag3
(g7
S'Y\xc3\x9a\xe2\xd3%`@'
p79
tp80
Rp81
ag3
(g7
S'\xb6\xbb[\x84R\xc1^@'
p82
tp83
Rp84
aa.