(lp0
(lp1
F7392.979599
aF7412.336357
aF7418.549859
aF7422.311318
aF7425.29365
aF7428.940503
aF7430.253226
aF7435.367797
aF7436.29646
aF7444.748861
aF7471.163605
aF7481.354454
aF7483.62556
aF7484.326163
aF7510.407726
aF7525.507848
aF7549.313767
aF7598.205405
aF7607.823001
aF7618.343787
aF7625.705231
aF7627.17483
aF7647.379393
aF7652.320117
aF7658.324546
aF7660.8903
aF7670.056955
aF7678.126655
aa(lp2
cnumpy.core.multiarray
scalar
p3
(cnumpy
dtype
p4
(S'f8'
p5
I0
I1
tp6
Rp7
(I3
S'<'
p8
NNNI-1
I-1
I0
tp9
bS'P5j}>\x02N@'
p10
tp11
Rp12
ag3
(g7
S'E]\x99\x0bU\xb7H@'
p13
tp14
Rp15
ag3
(g7
S'\xd7\xa6\x0c\xdeQJL@'
p16
tp17
Rp18
ag3
(g7
S'\xb3\x1b\xb5\x1cH\x93E@'
p19
tp20
Rp21
ag3
(g7
S'\xb2mo)\xf2\xffe@'
p22
tp23
Rp24
ag3
(g7
S'2\x02\x80\n\x9c\xc6X@'
p25
tp26
Rp27
ag3
(g7
S'\x82\x9fa3\x90eP@'
p28
tp29
Rp30
ag3
(g7
S'\xe9d\xa7\x12\x1d\xdbL@'
p31
tp32
Rp33
ag3
(g7
S'\xfd\x91/\xed\x9fF @'
p34
tp35
Rp36
ag3
(g7
S'\xcf\xb1\xe7\xcc\xfa\xdfR@'
p37
tp38
Rp39
ag3
(g7
S'G\xcb\xf5\xbcTXS@'
p40
tp41
Rp42
ag3
(g7
S'\t\x84\xc9Y\x16\x06Q@'
p43
tp44
Rp45
ag3
(g7
S'+z\xcc\x8aH6\x1a@'
p46
tp47
Rp48
ag3
(g7
S'/<\xe9\x01e\x9eP@'
p49
tp50
Rp51
ag3
(g7
S'd!\x8bn\x0f\xfdY@'
p52
tp53
Rp54
ag3
(g7
S'7,K\xb2\xfa\xa7\x0e@'
p55
tp56
Rp57
ag3
(g7
S'\xa3@!T\xa6\x82Z@'
p58
tp59
Rp60
ag3
(g7
S'\xf6&ox\xdd\x802@'
p61
tp62
Rp63
ag3
(g7
S'\xa8\xa3\xfb\xca24(@'
p64
tp65
Rp66
ag3
(g7
S'\xb7\xf2\xb5-\x9f7\x17@'
p67
tp68
Rp69
ag3
(g7
S'\xc0\xd0\x99\x84\x97e_@'
p70
tp71
Rp72
ag3
(g7
S'\x13h\xf9\x05\xf6><@'
p73
tp74
Rp75
ag3
(g7
S'QI\xc7QE\x82a@'
p76
tp77
Rp78
ag3
(g7
S'\xb3\xd7h\xd3g\x1aa@'
p79
tp80
Rp81
ag3
(g7
S'\xd9\x01`\x95n\xb4g@'
p82
tp83
Rp84
ag3
(g7
S'U,w4\x82X\x13@'
p85
tp86
Rp87
ag3
(g7
S'\xcf\xc9\x10\xb4c\xf2T@'
p88
tp89
Rp90
ag3
(g7
S'\x92\\\xbe\x00\x18\xb1G@'
p91
tp92
Rp93
aa.