(lp0
(lp1
F8868.833307
aF8874.797576
aF8892.986447
aF8905.65633
aF8949.122626
aF8955.846664
aF8967.640269
aF8968.948108
aF8969.866623
aF8971.363979
aF8995.862715
aF9008.456738
aF9016.590249
aF9017.591428
aF9035.919111
aF9037.893765
aF9045.353161
aF9048.250039
aF9062.562998
aF9063.959977
aF9068.024773
aF9075.393921
aF9090.818586
aF9098.574389
aF9106.562758
aF9159.032791
aF9165.894985
aF9178.779472
aF9180.121639
aF9192.592924
aF9203.961599
aa(lp2
cnumpy.core.multiarray
scalar
p3
(cnumpy
dtype
p4
(S'f8'
p5
I0
I1
tp6
Rp7
(I3
S'<'
p8
NNNI-1
I-1
I0
tp9
bS'\x17:\xac\x92}\tw@'
p10
tp11
Rp12
ag3
(g7
S'uSJY\x10\xb8x@'
p13
tp14
Rp15
ag3
(g7
S'\x85\xe4\x85\xb5\xd5\xa3F@'
p16
tp17
Rp18
ag3
(g7
S'\x8b\xe3,Bb_.@'
p19
tp20
Rp21
ag3
(g7
S'T\x8d:\xfb\xafa=@'
p22
tp23
Rp24
ag3
(g7
S'\x93\xa07P\xd9\xf9p@'
p25
tp26
Rp27
ag3
(g7
S'5\x17\xf0\x93\x02\xc7V@'
p28
tp29
Rp30
ag3
(g7
S'\x0e\x0f\xde\xf1\xec\xc97@'
p31
tp32
Rp33
ag3
(g7
S'g>.\xddx\xed[@'
p34
tp35
Rp36
ag3
(g7
S'\x1a4\x0b_\xc5\xc6V@'
p37
tp38
Rp39
ag3
(g7
S'\xe3\x83\x89u\xdb\xc66@'
p40
tp41
Rp42
ag3
(g7
S'\xac\xf3-\xd1\x0f\x02f@'
p43
tp44
Rp45
ag3
(g7
S'\t\xc0E>\xf5\x07v@'
p46
tp47
Rp48
ag3
(g7
S'\x8fh\x90\xaf\xae*i@'
p49
tp50
Rp51
ag3
(g7
S'\x00{\r\xbcwFU@'
p52
tp53
Rp54
ag3
(g7
S'\x8a\x8d\x94\x90:\x9f`@'
p55
tp56
Rp57
ag3
(g7
S'4\xe0\xa0h\x9d\xc5`@'
p58
tp59
Rp60
ag3
(g7
S'\x04\xff\x99\x82\xa0\x81Q@'
p61
tp62
Rp63
ag3
(g7
S'"\xa4\xb9\x84i\x9f+@'
p64
tp65
Rp66
ag3
(g7
S'y\xde\xe8\xc7:5K@'
p67
tp68
Rp69
ag3
(g7
S'\x94\xccn\xd2\x1f\x92p@'
p70
tp71
Rp72
ag3
(g7
S'\xeeE\x01\xbc\x08)v@'
p73
tp74
Rp75
ag3
(g7
S'\xbaa\r\x98\xaa\xf8d@'
p76
tp77
Rp78
ag3
(g7
S'\x95\xca\xbf\x88>\x9db@'
p79
tp80
Rp81
ag3
(g7
S'\x91?\xf9\x12\xdb\x1cp@'
p82
tp83
Rp84
ag3
(g7
S'1\xd9\x02\xeb\x81\xe0;@'
p85
tp86
Rp87
ag3
(g7
S'\xfaI\xdf\xf1\xe3zE@'
p88
tp89
Rp90
ag3
(g7
S'V\xa3q3\x98\xb13@'
p91
tp92
Rp93
ag3
(g7
S'=\x9e\xd1\x97\xaa\xad:@'
p94
tp95
Rp96
ag3
(g7
S'D\xe0P\x8a/$`@'
p97
tp98
Rp99
ag3
(g7
S'\x04\xc7\x9a9\xcbj[@'
p100
tp101
Rp102
aa.