(lp0
(lp1
F5996.629542
aF5998.998413
aF6000.76217
aF6001.203223
aF6001.73306
aF6005.16538
aF6007.071707
aF6010.160403
aF6013.677581
aF6015.421838
aF6021.035954
aF6023.224636
aF6027.247932
aF6029.226527
aF6029.649655
aF6030.444634
aF6032.872513
aF6035.192945
aF6038.680894
aF6042.589816
aF6050.981354
aF6052.723191
aF6053.380881
aF6055.593561
aF6073.103405
aF6077.10623
aF6077.873444
aF6078.42172
aF6079.223155
aF6087.262239
aF6088.030147
aF6098.119995
aF6098.803276
aF6099.083282
aF6101.161657
aF6101.725299
aF6105.635022
aF6107.533218
aF6112.837405
aF6113.465684
aF6116.166035
aF6120.556142
aF6123.362088
aF6123.833472
aF6124.48035
aF6130.119929
aF6130.456217
aF6136.235559
aF6136.702068
aF6137.927168
aF6139.143586
aF6139.650409
aF6142.074202
aF6144.757809
aF6150.683097
aF6151.993136
aF6154.067977
aF6154.515407
aF6155.238304
aF6157.087549
aF6161.352783
aF6165.123306
aF6173.095869
aF6178.431309
aF6180.704936
aF6187.135068
aF6189.144126
aF6200.432855
aF6205.859937
aF6208.686951
aF6215.939548
aF6220.011596
aF6226.369616
aa(lp2
cnumpy.core.multiarray
scalar
p3
(cnumpy
dtype
p4
(S'f8'
p5
I0
I1
tp6
Rp7
(I3
S'<'
p8
NNNI-1
I-1
I0
tp9
bS'\xe1>\x9b\xaaJ\xa9R@'
p10
tp11
Rp12
ag3
(g7
S')0\xb3;{\xd2c@'
p13
tp14
Rp15
ag3
(g7
S'k?k\xe7\xe7yr@'
p16
tp17
Rp18
ag3
(g7
S':A/K<\x0c\xf3?'
p19
tp20
Rp21
ag3
(g7
S'D\x1b\xcc\x13\xb4=\x87@'
p22
tp23
Rp24
ag3
(g7
S'\xd1\x0cH\xac\xec\xb5F@'
p25
tp26
Rp27
ag3
(g7
S'\xb1\xef\x16\x13\x80\xb9`@'
p28
tp29
Rp30
ag3
(g7
S'$9 ,\x80\x1f?@'
p31
tp32
Rp33
ag3
(g7
S'\r\x0bJ\xf6,\xbeN@'
p34
tp35
Rp36
ag3
(g7
S'\x97P\xeaO(\xee*@'
p37
tp38
Rp39
ag3
(g7
S'\x80\xe5\xb49\x05\xb45@'
p40
tp41
Rp42
ag3
(g7
S'\xb8U\n\x0cA~I@'
p43
tp44
Rp45
ag3
(g7
S')\xd5\xac-,\xe0s@'
p46
tp47
Rp48
ag3
(g7
S'\x9a\x0c\x07\xab\x17qx@'
p49
tp50
Rp51
ag3
(g7
S'\xb8\x84@\xf1W\x13o@'
p52
tp53
Rp54
ag3
(g7
S'}3 de\rU@'
p55
tp56
Rp57
ag3
(g7
S'\xbc\xd0\xba\x88\xdc\xacl@'
p58
tp59
Rp60
ag3
(g7
S'I\x17\r-\x1e\x8bB@'
p61
tp62
Rp63
ag3
(g7
S'\xbf\x17*&\x8f\x1cA@'
p64
tp65
Rp66
ag3
(g7
S'C\x1b\xcf.\xe1yA@'
p67
tp68
Rp69
ag3
(g7
S'\xa3\x18\xcf\x99\x7f\n\x1b@'
p70
tp71
Rp72
ag3
(g7
S'\xfb\x90?\x97+\xcdO@'
p73
tp74
Rp75
ag3
(g7
S'oXQ\xe3\xa91_@'
p76
tp77
Rp78
ag3
(g7
S'\xb8i\xc2\x81]F\x10@'
p79
tp80
Rp81
ag3
(g7
S'\xb5\x01hTP\x0bB@'
p82
tp83
Rp84
ag3
(g7
S'\x9fH\xb4\xa2w\xfb5@'
p85
tp86
Rp87
ag3
(g7
S'^\xe5\x12\x9d\xde\x9fQ@'
p88
tp89
Rp90
ag3
(g7
S'\xb2\t\xa0\xae\xcf\xf4\\@'
p91
tp92
Rp93
ag3
(g7
S'\xde\xbf\xdbSI8H@'
p94
tp95
Rp96
ag3
(g7
S'\xdb\x0fI\xc3\xf2iC@'
p97
tp98
Rp99
ag3
(g7
S'\xd8_\x89\x0fJ\xdeT@'
p100
tp101
Rp102
ag3
(g7
S'\x14\x0e\xefG\xff\xc6`@'
p103
tp104
Rp105
ag3
(g7
S'f5\xceF_\xac&@'
p106
tp107
Rp108
ag3
(g7
S'By,\xa4\xc3,D@'
p109
tp110
Rp111
ag3
(g7
S'\x99l\xbbP\xeb\xa64@'
p112
tp113
Rp114
ag3
(g7
S'T%\xae\xc7#\xcdH@'
p115
tp116
Rp117
ag3
(g7
S'\x03\xe3\xe0\xbb\xbe\xe9\x11@'
p118
tp119
Rp120
ag3
(g7
S'\xfbe^\x164\xc6M@'
p121
tp122
Rp123
ag3
(g7
S'\x86\x82 \xb9xDO@'
p124
tp125
Rp126
ag3
(g7
S'\xf0\xfc2w&\xb1/@'
p127
tp128
Rp129
ag3
(g7
S'\xe0\x19P\xd1\x9c\xcf,@'
p130
tp131
Rp132
ag3
(g7
S'\xb4\xa1\xa6\x15\xf6\xcdM@'
p133
tp134
Rp135
ag3
(g7
S'\xb3\xb0\x02\xe9~\xf69@'
p136
tp137
Rp138
ag3
(g7
S"&\xc7\xbe\xc9'\x14}@"
p139
tp140
Rp141
ag3
(g7
S'\xe6\xd1y-\x1a\xa6\x16@'
p142
tp143
Rp144
ag3
(g7
S'\x1e\xc6)\x81b\xd2X@'
p145
tp146
Rp147
ag3
(g7
S'\x14\xc7\xa3\xb7<\xc5\x81@'
p148
tp149
Rp150
ag3
(g7
S'\xa1m\x18\xcbDe2@'
p151
tp152
Rp153
ag3
(g7
S'\x8fO\x85\x06\xc2\x94E@'
p154
tp155
Rp156
ag3
(g7
S'\xeb\r\xc59.78@'
p157
tp158
Rp159
ag3
(g7
S'u\xfa\xf1\xefX\xb5T@'
p160
tp161
Rp162
ag3
(g7
S'\xe7\x1f\xd0\x13\xa0\xb5 @'
p163
tp164
Rp165
ag3
(g7
S'\xe1\x8f\x13\xb7\x00\xe6i@'
p166
tp167
Rp168
ag3
(g7
S'\xcc\x14\x88h7XI@'
p169
tp170
Rp171
ag3
(g7
S'<O%\xa8\x8c\x16X@'
p172
tp173
Rp174
ag3
(g7
S'IY\x99\xa2\x8f_C@'
p175
tp176
Rp177
ag3
(g7
S'\xf1\xd4\x89_\xcdz4@'
p178
tp179
Rp180
ag3
(g7
S'\x1cD\xeb\xeag\x97}@'
p181
tp182
Rp183
ag3
(g7
S'\x84\xf4\x88\xdfS\xd3@@'
p184
tp185
Rp186
ag3
(g7
S'V5lV2\x07b@'
p187
tp188
Rp189
ag3
(g7
S'\x1bM\x95\xb7\xf6\xedh@'
p190
tp191
Rp192
ag3
(g7
S"'\x8e\xf8\x90N\x01\x1a@"
p193
tp194
Rp195
ag3
(g7
S'\x1d\x02\xd3i\xc1\xecT@'
p196
tp197
Rp198
ag3
(g7
S'\x10\xd9"*%\xbd\x11@'
p199
tp200
Rp201
ag3
(g7
S'%n\xe8\xf0\xad\x8d^@'
p202
tp203
Rp204
ag3
(g7
S'ke\xe6\xcd\xecOC@'
p205
tp206
Rp207
ag3
(g7
S'\x12\x82t\xa8\x9e\xab]@'
p208
tp209
Rp210
ag3
(g7
S'\xecm\x01\x87\x18\xfa9@'
p211
tp212
Rp213
ag3
(g7
S'+\xd9\xb3\xa9\x97\xcb`@'
p214
tp215
Rp216
ag3
(g7
S'A\xc4\x81T\xe8\xce1@'
p217
tp218
Rp219
ag3
(g7
S'\npP[\x8b6G@'
p220
tp221
Rp222
ag3
(g7
S"2\x7fWV$\xad'@"
p223
tp224
Rp225
ag3
(g7
S'\xed\x84\x8bt\xeaw5@'
p226
tp227
Rp228
aa.