(lp0
(lp1
F5407.34361
aF5407.653006
aF5410.768418
aF5424.007403
aF5425.677824
aF5426.406673
aF5431.111593
aF5434.151676
aF5437.388347
aF5438.137887
aF5440.601143
aF5449.47979
aF5451.65205
aF5452.21866
aF5454.305823
aF5457.797894
aF5461.736883
aF5464.205069
aF5470.758744
aF5479.074296
aF5490.118976
aF5492.643935
aF5493.204396
aF5494.331392
aF5495.875079
aF5496.137602
aF5499.647681
aF5501.280955
aF5501.944769
aF5503.26561
aF5504.30159
aF5507.538772
aF5508.558582
aF5509.993104
aF5514.375946
aF5514.873106
aF5518.989225
aF5524.956476
aF5527.294542
aF5535.970908
aF5537.555881
aF5539.2618
aF5539.910639
aF5541.582669
aF5542.890641
aF5545.050449
aF5546.12073
aF5548.176013
aF5555.531191
aF5557.045427
aF5559.891048
aF5570.926601
aF5576.204181
aF5579.357544
aF5580.077108
aF5580.755059
aF5582.366961
aF5583.76248
aF5593.612466
aF5595.064394
aF5597.476746
aF5599.655001
aF5601.603067
aF5604.515166
aF5606.386056
aF5610.680538
aF5612.067646
aF5618.014336
aF5620.92162
aF5625.678431
aa(lp2
cnumpy.core.multiarray
scalar
p3
(cnumpy
dtype
p4
(S'f8'
p5
I0
I1
tp6
Rp7
(I3
S'<'
p8
NNNI-1
I-1
I0
tp9
bS'L\xea`\x84\x10]S@'
p10
tp11
Rp12
ag3
(g7
S'%\x853\xce\x00\x10]@'
p13
tp14
Rp15
ag3
(g7
S'\xff\x10\xf6}\xd3\ta@'
p16
tp17
Rp18
ag3
(g7
S'\x83\xee\x87\xa0\x0e\x87L@'
p19
tp20
Rp21
ag3
(g7
S'\x13\x0cX/!\xe7[@'
p22
tp23
Rp24
ag3
(g7
S'=;\xcd\xe6\x13\xbe5@'
p25
tp26
Rp27
ag3
(g7
S'aZU\x9c#\x139@'
p28
tp29
Rp30
ag3
(g7
S'\xed\xbcwP\xad\x03Q@'
p31
tp32
Rp33
ag3
(g7
S'\xdb\x10\xe4Jp\xedQ@'
p34
tp35
Rp36
ag3
(g7
S'i\x87\xcc\xb9\x1c\x04D@'
p37
tp38
Rp39
ag3
(g7
S'\x87\xd4\x18/\xa0\xban@'
p40
tp41
Rp42
ag3
(g7
S'\x9f\xc7\xf5\x08\xae\xb8T@'
p43
tp44
Rp45
ag3
(g7
S'\t;\x8dFH\xcfX@'
p46
tp47
Rp48
ag3
(g7
S'\x0e\xde\xf7\xc3VK(@'
p49
tp50
Rp51
ag3
(g7
S'\xbe\x13r\xbf\xd6\x9d.@'
p52
tp53
Rp54
ag3
(g7
S'K1\x89\xc0(\x85U@'
p55
tp56
Rp57
ag3
(g7
S'4#\x0b\xaa\xaa\x04u@'
p58
tp59
Rp60
ag3
(g7
S'\xe6)\xc9\x1e\xe4I"@'
p61
tp62
Rp63
ag3
(g7
S'\xb9\xd9!!\xf0\xa2\x19@'
p64
tp65
Rp66
ag3
(g7
S',#;\x93\xc4\xedC@'
p67
tp68
Rp69
ag3
(g7
S'=\x19\x92;\x9c3n@'
p70
tp71
Rp72
ag3
(g7
S':7u\xcc}\r!@'
p73
tp74
Rp75
ag3
(g7
S'\x93b\r \xec\x9cF@'
p76
tp77
Rp78
ag3
(g7
S'%A\xb5[\x8f\xccU@'
p79
tp80
Rp81
ag3
(g7
S"\xf3\x89('\xa2s/@"
p82
tp83
Rp84
ag3
(g7
S"md\xd0\x10'K_@"
p85
tp86
Rp87
ag3
(g7
S'8\xec\xefN\xbewA@'
p88
tp89
Rp90
ag3
(g7
S'6\x88\x1d\xbd\x17!7@'
p91
tp92
Rp93
ag3
(g7
S'\xac\x80S\x08\t\xc1Y@'
p94
tp95
Rp96
ag3
(g7
S'\xc5\xc0\xaf\xb0\xfc[T@'
p97
tp98
Rp99
ag3
(g7
S'\xd9\xbf;\xediF?@'
p100
tp101
Rp102
ag3
(g7
S'\xd5\x8d\x19o&KM@'
p103
tp104
Rp105
ag3
(g7
S'\x04\xa0c%2\x10b@'
p106
tp107
Rp108
ag3
(g7
S'\x81\x13bQ\xf0]B@'
p109
tp110
Rp111
ag3
(g7
S'\xb5\x9c\x85wc\xafE@'
p112
tp113
Rp114
ag3
(g7
S'a\xab\xa3\xe8\xbb\xe0>@'
p115
tp116
Rp117
ag3
(g7
S'\xbb\xcc\xa6|GjA@'
p118
tp119
Rp120
ag3
(g7
S'\x8b-u\xf9e\xc1H@'
p121
tp122
Rp123
ag3
(g7
S'\x1b\x13\xd4R\x9d\x88>@'
p124
tp125
Rp126
ag3
(g7
S'\xb5Z?\xf6\t\xe3S@'
p127
tp128
Rp129
ag3
(g7
S'\xb2\x84\xab\x1a\x1ft0@'
p130
tp131
Rp132
ag3
(g7
S'\xb6K=\xf8\xf8\x902@'
p133
tp134
Rp135
ag3
(g7
S'u\tc\xef\xd6\x12\xf7?'
p136
tp137
Rp138
ag3
(g7
S'\xd8\xa4\x0b~\xbe\x0fC@'
p139
tp140
Rp141
ag3
(g7
S'YP\x1c\x8fq\x14\x00@'
p142
tp143
Rp144
ag3
(g7
S'3t\n\xae#B\xff?'
p145
tp146
Rp147
ag3
(g7
S'C\xab\xdf\x9b\xcc|2@'
p148
tp149
Rp150
ag3
(g7
S"~\x1a?\xe0s'.@"
p151
tp152
Rp153
ag3
(g7
S'c\xaf\xf9<\x84\x15S@'
p154
tp155
Rp156
ag3
(g7
S'\x8a\x85\x0c\x1a\x84\xff&@'
p157
tp158
Rp159
ag3
(g7
S'\xa0 V\x06U\xdeE@'
p160
tp161
Rp162
ag3
(g7
S'\xb5\x07\xd9\x12\xa6\x1b0@'
p163
tp164
Rp165
ag3
(g7
S'e\xbcE)\x00qK@'
p166
tp167
Rp168
ag3
(g7
S'\xaccH\xd1\xa2\xa2<@'
p169
tp170
Rp171
ag3
(g7
S'w\xad\xf7Fq\x19Y@'
p172
tp173
Rp174
ag3
(g7
S'\xd4\xd2\x07\xfch\xc6S@'
p175
tp176
Rp177
ag3
(g7
S'/\x1dF)g\x06K@'
p178
tp179
Rp180
ag3
(g7
S'\xc6\x82\x00\xd7\xf3)U@'
p181
tp182
Rp183
ag3
(g7
S'\xab\xc6Pq\xd96=@'
p184
tp185
Rp186
ag3
(g7
S'\x07\xc8\xf9\xa5#\xf6N@'
p187
tp188
Rp189
ag3
(g7
S'\x02[L:\xb3;L@'
p190
tp191
Rp192
ag3
(g7
S'b\xfen2\xd6F\x17@'
p193
tp194
Rp195
ag3
(g7
S'\xc7a\x96\x92\x07\xdf.@'
p196
tp197
Rp198
ag3
(g7
S'\x01|\x89\xfdx\xe7[@'
p199
tp200
Rp201
ag3
(g7
S'\x88\x95\xc9\x9b\xe0JV@'
p202
tp203
Rp204
ag3
(g7
S'#\xc2\xbc\xf3\xd1\xbdJ@'
p205
tp206
Rp207
ag3
(g7
S'\xd0tv\x1au\xeaJ@'
p208
tp209
Rp210
ag3
(g7
S'\x00\xef\x08\x0cl\x82,@'
p211
tp212
Rp213
ag3
(g7
S'\xd0\x8d\xef\xd9\xe5\xdeW@'
p214
tp215
Rp216
ag3
(g7
S'K\xd1\xc2\x1f\x84x\xcf?'
p217
tp218
Rp219
aa.