(lp0
(lp1
F4104.837546
aF4107.05032
aF4108.419732
aF4109.323634
aF4115.758823
aF4116.713432
aF4128.640145
aF4131.002095
aF4134.323895
aF4135.479805
aF4138.040573
aF4142.700927
aF4148.181686
aF4156.085726
aF4161.738871
aF4162.508771
aF4165.766346
aF4167.865471
aF4168.63406
aF4170.53309
aF4171.341017
aF4178.059409
aF4178.848605
aF4181.883406
aF4185.468315
aF4194.936108
aF4208.411158
aF4210.456944
aF4210.923021
aF4213.067117
aF4217.430828
aF4222.637351
aF4223.439279
aF4226.299091
aF4226.987481
aF4227.387297
aF4228.157937
aF4230.426111
aF4230.823466
aF4235.463786
aF4241.094942
aF4243.261039
aF4253.538831
aF4255.237191
aF4256.253647
aF4258.519951
aF4260.332518
aF4262.612445
aF4266.527325
aF4269.942283
aa(lp2
cnumpy.core.multiarray
scalar
p3
(cnumpy
dtype
p4
(S'f8'
p5
I0
I1
tp6
Rp7
(I3
S'<'
p8
NNNI-1
I-1
I0
tp9
bS'\xf8!\xd9\xf3\xdb\x96g@'
p10
tp11
Rp12
ag3
(g7
S'\xcf\x8f6\x8a[\x9eX@'
p13
tp14
Rp15
ag3
(g7
S'\xb8\xd6\xe1\x8e\x0bKW@'
p16
tp17
Rp18
ag3
(g7
S'\xce\xb7\x7f\x91\xce\xb6p@'
p19
tp20
Rp21
ag3
(g7
S'bs}\x16Y\xa7o@'
p22
tp23
Rp24
ag3
(g7
S'\x11\xb8\x9e\xc5O_e@'
p25
tp26
Rp27
ag3
(g7
S'Z\xf8\xb5\x16H9B@'
p28
tp29
Rp30
ag3
(g7
S'H\xbd\xbd{\xa5\xf8P@'
p31
tp32
Rp33
ag3
(g7
S'\xe3\x8e\xef5\xbc\x8fg@'
p34
tp35
Rp36
ag3
(g7
S'\x01\xd11\xd5\xe0:Z@'
p37
tp38
Rp39
ag3
(g7
S'z\xe3Z]4vP@'
p40
tp41
Rp42
ag3
(g7
S'\xc5\xd8\x94\x1c\xb1\xe7`@'
p43
tp44
Rp45
ag3
(g7
S'W\x05d\xe1@\x06Y@'
p46
tp47
Rp48
ag3
(g7
S'\x8c\xbe\xba\xb6\xfb_F@'
p49
tp50
Rp51
ag3
(g7
S'\x146\xac@5\xa4f@'
p52
tp53
Rp54
ag3
(g7
S'\x11\xbd\x04\xd9\x90zd@'
p55
tp56
Rp57
ag3
(g7
S'\x8f\xc7{\x9e\x03\x1c\x1f@'
p58
tp59
Rp60
ag3
(g7
S'\xff\xe7\x8f7\xfe-s@'
p61
tp62
Rp63
ag3
(g7
S'x\xe9\xb2\xfaN\x0cX@'
p64
tp65
Rp66
ag3
(g7
S'1Rh[\xb6\xb8N@'
p67
tp68
Rp69
ag3
(g7
S'+\xfeG\x1eT\x97\xce?'
p70
tp71
Rp72
ag3
(g7
S'&\x19\x01)y\xa87@'
p73
tp74
Rp75
ag3
(g7
S'- u\xd1\xd1\x84"@'
p76
tp77
Rp78
ag3
(g7
S'\xd9\xad\xa4\xcab\x82.@'
p79
tp80
Rp81
ag3
(g7
S'pf\xd7k\xc9@\x85@'
p82
tp83
Rp84
ag3
(g7
S'\x8e\x85\xa4C\x079Q@'
p85
tp86
Rp87
ag3
(g7
S'\xd8\xa5\x11s\xab\xe9H@'
p88
tp89
Rp90
ag3
(g7
S'S\x1c\xc7\x8f<\x82\x83@'
p91
tp92
Rp93
ag3
(g7
S'b\xc7\xf0\xf2w\xe4c@'
p94
tp95
Rp96
ag3
(g7
S',\xda1\xf7im%@'
p97
tp98
Rp99
ag3
(g7
S'\xe4wl3\x82l.@'
p100
tp101
Rp102
ag3
(g7
S'\x14N\x89\xfd\xe5+W@'
p103
tp104
Rp105
ag3
(g7
S'\xe6U\xc1\x88\x079`@'
p106
tp107
Rp108
ag3
(g7
S"'\x84Xb\xb8\xdc7@"
p109
tp110
Rp111
ag3
(g7
S'\x05\x86\r\xd5R((@'
p112
tp113
Rp114
ag3
(g7
S'E3j\xdc^\xa0<@'
p115
tp116
Rp117
ag3
(g7
S'(.\xdc\x17\xff\x92D@'
p118
tp119
Rp120
ag3
(g7
S'Gu\xfe\xc3\x826\xff?'
p121
tp122
Rp123
ag3
(g7
S'\x83\xb0T\xafx\xadL@'
p124
tp125
Rp126
ag3
(g7
S'\x10\xafR\xa1\xbb\xc5W@'
p127
tp128
Rp129
ag3
(g7
S'Y6\xca\x10m|X@'
p130
tp131
Rp132
ag3
(g7
S'\x14J\xe0I\xd6\x9cQ@'
p133
tp134
Rp135
ag3
(g7
S'\xb9\xe9\x9d\xa1\x01\x8aE@'
p136
tp137
Rp138
ag3
(g7
S'\xc7\xdc\xa8\xdeP3\x18@'
p139
tp140
Rp141
ag3
(g7
S'f\xfd\x0b;8F2@'
p142
tp143
Rp144
ag3
(g7
S'\x8d\x88!\xff\x0fh>@'
p145
tp146
Rp147
ag3
(g7
S'G\x0e\xc9zn\xe0H@'
p148
tp149
Rp150
ag3
(g7
S'H\xd3\x19\n\n\xedj@'
p151
tp152
Rp153
ag3
(g7
S'\xca\xb1?\xd8\xb8bF@'
p154
tp155
Rp156
ag3
(g7
S'\x13;\x12\xe4\r;D@'
p157
tp158
Rp159
aa.