(lp0
(lp1
F7647.379393
aF7652.320117
aF7658.324546
aF7660.8903
aF7670.056955
aF7678.126655
aF7704.816383
aF7710.269186
aF7742.56281
aF7771.946753
aF7788.934115
aF7814.322428
aF7817.769853
aF7841.791042
aF7847.539388
aF7861.909446
aF7862.345135
aF7864.021806
aF7865.96977
aF7886.28298
aF7899.622869
aF7900.319926
aF7916.441468
aF7937.73347
aF7941.725859
aa(lp2
cnumpy.core.multiarray
scalar
p3
(cnumpy
dtype
p4
(S'f8'
p5
I0
I1
tp6
Rp7
(I3
S'<'
p8
NNNI-1
I-1
I0
tp9
bS'ag\xb0\x1c\xaa\xfb@@'
p10
tp11
Rp12
ag3
(g7
S'\xa7\x11\xa4W\xd5\x8bT@'
p13
tp14
Rp15
ag3
(g7
S'\xf8?4z\xf6\x1dO@'
p16
tp17
Rp18
ag3
(g7
S'\x85\xd5\x80\x84A\x8dU@'
p19
tp20
Rp21
ag3
(g7
S'\xa8\xd7m\x1cr\xfdU@'
p22
tp23
Rp24
ag3
(g7
S'P<\xf5\x8f\xa5\xa5D@'
p25
tp26
Rp27
ag3
(g7
S"d'\\\xb5\xdb\x7fV@"
p28
tp29
Rp30
ag3
(g7
S'\xd1\xb5\xc7\xae\xf5\xfcP@'
p31
tp32
Rp33
ag3
(g7
S'7Dl\xc9\xff\xcbb@'
p34
tp35
Rp36
ag3
(g7
S'\xfdDm\xdaH\xaeU@'
p37
tp38
Rp39
ag3
(g7
S'l$\xb7\xd8\xf4%@@'
p40
tp41
Rp42
ag3
(g7
S']\xcc77\xab\x9c]@'
p43
tp44
Rp45
ag3
(g7
S'\xcd\xfep\xe5\x98L8@'
p46
tp47
Rp48
ag3
(g7
S'\xc1B\xceP\xe9\xda@@'
p49
tp50
Rp51
ag3
(g7
S'Q\xbf\xd8[\xca1Z@'
p52
tp53
Rp54
ag3
(g7
S'U\xde\xe86L\xf7t@'
p55
tp56
Rp57
ag3
(g7
S'\xc4\xbe\xedl\xf0\xb7\x84@'
p58
tp59
Rp60
ag3
(g7
S'\xdf\xe6\xfbpxMa@'
p61
tp62
Rp63
ag3
(g7
S'\x053\xcbAw\x92h@'
p64
tp65
Rp66
ag3
(g7
S'\xd6r\xba\xb5Pa<@'
p67
tp68
Rp69
ag3
(g7
S'\xc6Y\x13\x1a\x90L\x08@'
p70
tp71
Rp72
ag3
(g7
S'\xe0|\x8d^\x9e\xfd7@'
p73
tp74
Rp75
ag3
(g7
S'g{0\x86\xe0\x1cR@'
p76
tp77
Rp78
ag3
(g7
S'\xd43\t\x8fo\xb7S@'
p79
tp80
Rp81
ag3
(g7
S'F\x82\xe0\x94ajB@'
p82
tp83
Rp84
aa.