(lp0
(lp1
F8539.79291
aF8554.943992
aF8573.120489
aF8577.276762
aF8591.838671
aF8604.016589
aF8620.459617
aF8623.801422
aF8639.441589
aF8645.308606
aF8665.485459
aF8678.407764
aF8709.234029
aF8732.423947
aF8748.030881
aF8749.169625
aF8758.243376
aF8760.449561
aF8766.744973
aF8771.860292
aF8772.805163
aF8775.57321
aF8784.555745
aF8799.086895
aF8804.589321
aF8816.17278
aF8841.183227
aF8868.833307
aa(lp2
cnumpy.core.multiarray
scalar
p3
(cnumpy
dtype
p4
(S'f8'
p5
I0
I1
tp6
Rp7
(I3
S'<'
p8
NNNI-1
I-1
I0
tp9
bS'P\xbc\x9e\x96~$B@'
p10
tp11
Rp12
ag3
(g7
S'\xbc\xad\x8c\xf9\xad~`@'
p13
tp14
Rp15
ag3
(g7
S'f\xc4\xc2\x10tu]@'
p16
tp17
Rp18
ag3
(g7
S':\x18\xa0_\xb6|F@'
p19
tp20
Rp21
ag3
(g7
S'~1\xab|Fve@'
p22
tp23
Rp24
ag3
(g7
S"\x8cHF{\x7f\xf9'@"
p25
tp26
Rp27
ag3
(g7
S'\x1d\xd7\xb5\xbd\x93}Y@'
p28
tp29
Rp30
ag3
(g7
S'\xe5!\x8f8C\xce_@'
p31
tp32
Rp33
ag3
(g7
S'a\xcf\xeeX\xa0\xd0@@'
p34
tp35
Rp36
ag3
(g7
S'\xf0[\xbfaj\xe3@@'
p37
tp38
Rp39
ag3
(g7
S'\xab\x9f\xdf\r\xc4LA@'
p40
tp41
Rp42
ag3
(g7
S'5\x7f\xbcZ\xc0\xdej@'
p43
tp44
Rp45
ag3
(g7
S'\x1792\xe2\xd7\x08O@'
p46
tp47
Rp48
ag3
(g7
S';\xe0@\xbf)\x8bS@'
p49
tp50
Rp51
ag3
(g7
S'V\xad7j\xe4\x19c@'
p52
tp53
Rp54
ag3
(g7
S'\x02V@\xc9%Pg@'
p55
tp56
Rp57
ag3
(g7
S'@Kk\xf37\xbc\x10@'
p58
tp59
Rp60
ag3
(g7
S'\xb6&\xf2\xbf\xec\x19(@'
p61
tp62
Rp63
ag3
(g7
S'{.\xae\xce\x1a@z@'
p64
tp65
Rp66
ag3
(g7
S'0[\x174\x0b\x81T@'
p67
tp68
Rp69
ag3
(g7
S'\xc2u\xacA\xf3\x0f!@'
p70
tp71
Rp72
ag3
(g7
S'\x17/\xad\xed\xe5\x9ap@'
p73
tp74
Rp75
ag3
(g7
S'N.\x06\xcaw[O@'
p76
tp77
Rp78
ag3
(g7
S'{\x93\xf5\xf6V<a@'
p79
tp80
Rp81
ag3
(g7
S'\xdc\x0e\xd9\xa2\xc3\x07`@'
p82
tp83
Rp84
ag3
(g7
S'\xe63\x92\xc8\x10\x1f<@'
p85
tp86
Rp87
ag3
(g7
S'v\xda,`}\x8d\x10@'
p88
tp89
Rp90
ag3
(g7
S'\xe5\r\xfc|\xa9u\x01@'
p91
tp92
Rp93
aa.