(lp0
(lp1
F6161.352783
aF6165.123306
aF6173.095869
aF6178.431309
aF6180.704936
aF6187.135068
aF6189.144126
aF6200.432855
aF6205.859937
aF6208.686951
aF6215.939548
aF6220.011596
aF6226.369616
aF6234.855274
aF6239.713735
aF6240.953508
aF6243.120579
aF6248.405488
aF6261.063971
aF6268.200175
aF6271.545663
aF6274.117134
aF6276.163901
aF6277.240161
aF6279.163311
aF6279.977795
aF6285.278073
aF6287.255422
aF6289.487365
aF6291.191394
aF6292.891193
aF6293.242453
aF6296.873431
aF6300.916443
aF6301.4125
aF6303.250903
aF6304.242481
aF6307.657424
aF6309.160048
aF6310.810115
aF6315.774781
aF6321.820008
aF6326.366601
aF6331.414229
aF6337.620376
aF6339.668592
aF6346.120802
aF6348.737373
aF6355.629962
aF6355.910728
aF6357.02289
aF6357.679181
aF6359.674339
aF6369.575508
aF6376.930646
aF6379.673103
aF6387.39542
aF6388.813122
aF6394.729845
aF6399.207531
aF6400.697592
aa(lp2
cnumpy.core.multiarray
scalar
p3
(cnumpy
dtype
p4
(S'f8'
p5
I0
I1
tp6
Rp7
(I3
S'<'
p8
NNNI-1
I-1
I0
tp9
bS'F\xc31\x86R\x99u@'
p10
tp11
Rp12
ag3
(g7
S'\xd8\n\xce\xa4\x1e\xf6x@'
p13
tp14
Rp15
ag3
(g7
S')o*48aJ@'
p16
tp17
Rp18
ag3
(g7
S'x\xba\x04`\x11\xa9F@'
p19
tp20
Rp21
ag3
(g7
S'\x9f2\x80\xaf\x08\xf2V@'
p22
tp23
Rp24
ag3
(g7
S"'dK\x14\x1b\xb1\\@"
p25
tp26
Rp27
ag3
(g7
S'\xf7\xa7\xb5n&gQ@'
p28
tp29
Rp30
ag3
(g7
S'\x00\xef\xd7t\xc0k[@'
p31
tp32
Rp33
ag3
(g7
S'\r\xad\x1eT\x01\x18\x12@'
p34
tp35
Rp36
ag3
(g7
S'=\xc3\x9b->\x96@@'
p37
tp38
Rp39
ag3
(g7
S'\x7f\x8c3[\x1auA@'
p40
tp41
Rp42
ag3
(g7
S'\x94>\x16\x0f\x9f\xe63@'
p43
tp44
Rp45
ag3
(g7
S'\xfe\xd1\x11\xee\n.V@'
p46
tp47
Rp48
ag3
(g7
S'\xb7[z\x98g@M@'
p49
tp50
Rp51
ag3
(g7
S'V\x9a\xfc\xfdd\xfdG@'
p52
tp53
Rp54
ag3
(g7
S',7\x8d\x17W\xc74@'
p55
tp56
Rp57
ag3
(g7
S'\x00\xa4\xe9\x80I-#@'
p58
tp59
Rp60
ag3
(g7
S')~\xde\xf4\x02dS@'
p61
tp62
Rp63
ag3
(g7
S'\xc2\x8fF\xd5\x85\xebR@'
p64
tp65
Rp66
ag3
(g7
S'\x13\xb2c\xb7O\xc5b@'
p67
tp68
Rp69
ag3
(g7
S'\xed\x9c\xc3\xe9\r\xb5n@'
p70
tp71
Rp72
ag3
(g7
S'\x93\x9e\x93)\x87nG@'
p73
tp74
Rp75
ag3
(g7
S'\xf5\xcb\x0e\x9e\x14ZI@'
p76
tp77
Rp78
ag3
(g7
S'\xc4\xbbV\xa1\xa3od@'
p79
tp80
Rp81
ag3
(g7
S'3zY\xd1\x15\xedT@'
p82
tp83
Rp84
ag3
(g7
S'\xe9\xe8d\xf7\xe3\xfa=@'
p85
tp86
Rp87
ag3
(g7
S'\xdb[\x8cL#\xffa@'
p88
tp89
Rp90
ag3
(g7
S'\x9e\x11\xd4\xb0o\xb8c@'
p91
tp92
Rp93
ag3
(g7
S'4$\xf9+[+v@'
p94
tp95
Rp96
ag3
(g7
S'\xfd\xdd\x1e\xe5\x15\xb6\x19@'
p97
tp98
Rp99
ag3
(g7
S'\xfd\x0c\nG(\xd3O@'
p100
tp101
Rp102
ag3
(g7
S'P`\xe1V\xc2\xfbL@'
p103
tp104
Rp105
ag3
(g7
S'fD\x1a\xbc\xc7\xf9$@'
p106
tp107
Rp108
ag3
(g7
S'\x1dN\xfbRl\xf0N@'
p109
tp110
Rp111
ag3
(g7
S'\x96\xf4vpIGe@'
p112
tp113
Rp114
ag3
(g7
S'|\xd32\x13*b2@'
p115
tp116
Rp117
ag3
(g7
S'z\x88\xc4\xc8]Na@'
p118
tp119
Rp120
ag3
(g7
S'\xd4\xc8\xdf\xec\xc5\x98C@'
p121
tp122
Rp123
ag3
(g7
S'\xf5b\x1a\x94*`=@'
p124
tp125
Rp126
ag3
(g7
S'\x83\xccF\xae?D8@'
p127
tp128
Rp129
ag3
(g7
S'o\xd3M\x9e\xf8\xe2H@'
p130
tp131
Rp132
ag3
(g7
S'\x11\xf0\xe0D\xa8\x8eg@'
p133
tp134
Rp135
ag3
(g7
S'\x98\xc4"\x1d*TE@'
p136
tp137
Rp138
ag3
(g7
S'\xf4\xb1<|-\x94a@'
p139
tp140
Rp141
ag3
(g7
S'\xde\xac\xf2;]ZM@'
p142
tp143
Rp144
ag3
(g7
S'\xcd\xf7st\xdaVH@'
p145
tp146
Rp147
ag3
(g7
S'\x02\xa8\xfeY\xb6\x93T@'
p148
tp149
Rp150
ag3
(g7
S'\xa6\xc7\xb8\xd7\x89\xd5S@'
p151
tp152
Rp153
ag3
(g7
S'\\\x87\xe9\x19K-E@'
p154
tp155
Rp156
ag3
(g7
S'N\xc4.\x98\x8f,K@'
p157
tp158
Rp159
ag3
(g7
S'7\xc9\xc5\xf1\x1a,8@'
p160
tp161
Rp162
ag3
(g7
S'\xc2W\x04\x9bn\xee4@'
p163
tp164
Rp165
ag3
(g7
S'\xda\xc9\xd5\xd1\x98\xa3g@'
p166
tp167
Rp168
ag3
(g7
S'\xbc\xc7\x92\xf1\x0b\xc0\xd7?'
p169
tp170
Rp171
ag3
(g7
S'U>\xc3*J\xbeC@'
p172
tp173
Rp174
ag3
(g7
S'[A\x85.\xf3/1@'
p175
tp176
Rp177
ag3
(g7
S'|&c\xa5g\xb3\x1e@'
p178
tp179
Rp180
ag3
(g7
S'\n]\xdcRXVA@'
p181
tp182
Rp183
ag3
(g7
S'\xc1\x9a \xbe%c*@'
p184
tp185
Rp186
ag3
(g7
S'\x01\xeb\xbd*y\xebY@'
p187
tp188
Rp189
ag3
(g7
S'\xd3\x14\x16\rx\x9f^@'
p190
tp191
Rp192
aa.