(lp0
(lp1
F4933.209697
aF4937.829231
aF4939.641603
aF4946.662819
aF4950.626354
aF4961.726585
aF4965.732215
aF4968.755634
aF4980.185897
aF4982.486931
aF4985.372021
aF4987.146715
aF4989.308372
aF4992.633479
aF4993.749146
aF5002.097356
aF5003.598696
aF5009.335298
aF5019.806082
aF5023.708441
aF5029.891591
aF5039.230522
aF5039.526601
aF5045.248316
aF5046.353235
aF5047.043744
aF5050.784272
aF5051.888619
aF5057.986289
aF5059.860949
aF5061.656103
aF5062.932389
aF5063.514632
aF5064.601734
aF5064.944882
aF5065.192056
aF5066.135402
aF5066.777182
aF5067.137803
aF5078.033036
aF5081.446377
aF5084.994251
aF5090.051923
aF5095.855643
aF5096.484919
aF5098.043343
aF5101.129448
aF5111.277808
aF5115.044494
aa(lp2
cnumpy.core.multiarray
scalar
p3
(cnumpy
dtype
p4
(S'f8'
p5
I0
I1
tp6
Rp7
(I3
S'<'
p8
NNNI-1
I-1
I0
tp9
bS'\xc6\xe4\xf3`\x8cOP@'
p10
tp11
Rp12
ag3
(g7
S'.\xe3\xed\x0b\x9f\xa6B@'
p13
tp14
Rp15
ag3
(g7
S'\x86\xbc\x7f\xf3\x99\x82V@'
p16
tp17
Rp18
ag3
(g7
S'U\x13\xc6I(\xc8W@'
p19
tp20
Rp21
ag3
(g7
S'&\x05\xce\x82O\xf8U@'
p22
tp23
Rp24
ag3
(g7
S')Q\xa5\x1a&DB@'
p25
tp26
Rp27
ag3
(g7
S'k\nJ-\xd7hO@'
p28
tp29
Rp30
ag3
(g7
S'\xf9\xb4\xc5:\x10\xf0W@'
p31
tp32
Rp33
ag3
(g7
S'\xcdM\xd2\x863\xe48@'
p34
tp35
Rp36
ag3
(g7
S'\x0fF\xbb\xa0k$8@'
p37
tp38
Rp39
ag3
(g7
S'\xf8\xbdXjT\xa55@'
p40
tp41
Rp42
ag3
(g7
S'\x0e\xf30\x16"kc@'
p43
tp44
Rp45
ag3
(g7
S'\x84\x84\xf8\x8e\xba\xc1%@'
p46
tp47
Rp48
ag3
(g7
S'\x0b\xa1\x02\x96=\xd6u@'
p49
tp50
Rp51
ag3
(g7
S'\xcd@\x85\x95\x07\xa8\x17@'
p52
tp53
Rp54
ag3
(g7
S'\xafG\x02W\xaa\x10\x08@'
p55
tp56
Rp57
ag3
(g7
S'D\xb6\xfe3\x9a)S@'
p58
tp59
Rp60
ag3
(g7
S'\x82\x98`\xb4\xe2\x03I@'
p61
tp62
Rp63
ag3
(g7
S'\x98<\xd3\xf0\xe5\xbd)@'
p64
tp65
Rp66
ag3
(g7
S'\xf7\n]\x18\xcf\xd3T@'
p67
tp68
Rp69
ag3
(g7
S'\xff\x04Q\xe8\x01\xb0M@'
p70
tp71
Rp72
ag3
(g7
S'T\xa4\xa1\xf0\xe3\xeeC@'
p73
tp74
Rp75
ag3
(g7
S's\x15\xd7\xfa.U4@'
p76
tp77
Rp78
ag3
(g7
S'#\xa5\xa0h\x08,\xfc?'
p79
tp80
Rp81
ag3
(g7
S'\xe8\xaf\xb1\xc0\xcb<a@'
p82
tp83
Rp84
ag3
(g7
S'z^b\xc0$H\x15@'
p85
tp86
Rp87
ag3
(g7
S'&$\x00\xa9Mm1@'
p88
tp89
Rp90
ag3
(g7
S'\xf8\xb9\xc6\xc2\x8e\x073@'
p91
tp92
Rp93
ag3
(g7
S'J+=v\x0e\xbb@@'
p94
tp95
Rp96
ag3
(g7
S'\x03A\xfe\xed\xdf\xd4\xe3?'
p97
tp98
Rp99
ag3
(g7
S'\x8c\xd9\xb0\x9a\xa0\xda:@'
p100
tp101
Rp102
ag3
(g7
S'zo\xc4g\rq7@'
p103
tp104
Rp105
ag3
(g7
S';\xc7\xf5\xe0N\x8eM@'
p106
tp107
Rp108
ag3
(g7
S'5\xf9\xa6\xf9\xc546@'
p109
tp110
Rp111
ag3
(g7
S'\xfe\x80\xde\x17y\x1c:@'
p112
tp113
Rp114
ag3
(g7
S'X\xb0\xfc(\x16zE@'
p115
tp116
Rp117
ag3
(g7
S'\x9d$y3\xe9R2@'
p118
tp119
Rp120
ag3
(g7
S'\xb1,\xa7\xa9.\xd10@'
p121
tp122
Rp123
ag3
(g7
S"9\xed'\xe0\x12\x1aP@"
p124
tp125
Rp126
ag3
(g7
S'\x8f\x8e\xf2\xd4u\xc8d@'
p127
tp128
Rp129
ag3
(g7
S'\xe5T\x01\xb7D_P@'
p130
tp131
Rp132
ag3
(g7
S'\xd7_\xbb\x1e\xd6\xb6k@'
p133
tp134
Rp135
ag3
(g7
S'\xd9\xe0\xf7;\xb0\x9aZ@'
p136
tp137
Rp138
ag3
(g7
S'\x95\xd71\x8d&P\\@'
p139
tp140
Rp141
ag3
(g7
S'\x10\x14\x0f%\xfcBB@'
p142
tp143
Rp144
ag3
(g7
S'7z\x12/\xec\xc0Q@'
p145
tp146
Rp147
ag3
(g7
S']\xacgn\x00\x060@'
p148
tp149
Rp150
ag3
(g7
S'q)\x17\x05j\xecR@'
p151
tp152
Rp153
ag3
(g7
S'X[\x12\xaa\xf0\x9f\\@'
p154
tp155
Rp156
aa.