(lp0
(lp1
F4628.201884
aF4628.441048
aF4638.684582
aF4647.250193
aF4650.234614
aF4651.989384
aF4655.212846
aF4659.570368
aF4663.202971
aF4666.516185
aF4666.798835
aF4668.171424
aF4669.984249
aF4675.375803
aF4683.351536
aF4686.1947
aF4690.622309
aF4694.091583
aF4695.454438
aF4708.29364
aF4712.840378
aF4721.276176
aF4721.590308
aF4722.088747
aF4723.784408
aF4728.13379
aF4729.128367
aF4729.879829
aF4732.054032
aF4739.676734
aF4742.117501
aF4749.199831
aF4752.414027
aF4761.109795
aF4764.346347
aF4765.595474
aF4766.601069
aF4775.313691
aF4775.794315
aF4777.191733
aF4780.751025
aF4782.761194
aF4786.530632
aF4787.147499
aF4789.386339
aF4793.24488
aF4795.913819
aF4800.171433
aa(lp2
cnumpy.core.multiarray
scalar
p3
(cnumpy
dtype
p4
(S'f8'
p5
I0
I1
tp6
Rp7
(I3
S'<'
p8
NNNI-1
I-1
I0
tp9
bS'\xdc\xd5E\x88\x190x@'
p10
tp11
Rp12
ag3
(g7
S'<R\xabo\xa8"j@'
p13
tp14
Rp15
ag3
(g7
S'\xf1\x96\xe1g\xd3*k@'
p16
tp17
Rp18
ag3
(g7
S'\x07\x0c\x01]m\xd5S@'
p19
tp20
Rp21
ag3
(g7
S']+\x1a\x1d\x1e\xc7e@'
p22
tp23
Rp24
ag3
(g7
S'R\x1e\x84\xfa1\t\x15@'
p25
tp26
Rp27
ag3
(g7
S'0\x96y\xf2\x1a;K@'
p28
tp29
Rp30
ag3
(g7
S'\xe4\xeb^\xf9\xd4bP@'
p31
tp32
Rp33
ag3
(g7
S'.\xbf\x85Rv\xe3_@'
p34
tp35
Rp36
ag3
(g7
S'\xd6\xef\xe2\xb0l\xcc]@'
p37
tp38
Rp39
ag3
(g7
S'\x8d\x86P>\x9d/S@'
p40
tp41
Rp42
ag3
(g7
S'Z\xf3\xcaG\xeb\xaa0@'
p43
tp44
Rp45
ag3
(g7
S'\xf4\xf5\xf2\xd4\x81\nT@'
p46
tp47
Rp48
ag3
(g7
S'\x1f_\x951\xe0\xf0A@'
p49
tp50
Rp51
ag3
(g7
S'\xd6\xcd\xb2\x16\xba\x9b@@'
p52
tp53
Rp54
ag3
(g7
S'\x9c\xe2\x8c\xb0\xe1\x8d5@'
p55
tp56
Rp57
ag3
(g7
S' \x08\xe9\xe1\xa6A5@'
p58
tp59
Rp60
ag3
(g7
S'h\xbaD\x10\xfd\x05@@'
p61
tp62
Rp63
ag3
(g7
S'GZ\xe61\xc5\x13W@'
p64
tp65
Rp66
ag3
(g7
S'R\x83\xde\xc3a%G@'
p67
tp68
Rp69
ag3
(g7
S'\xb4\xc8\x8a\xcd\xeb\xf8Q@'
p70
tp71
Rp72
ag3
(g7
S'\xf0E!2\x06eF@'
p73
tp74
Rp75
ag3
(g7
S'\xc1Qe\xe1\x1eiU@'
p76
tp77
Rp78
ag3
(g7
S"\xd2'\xab\xd4\xe0\xbcB@"
p79
tp80
Rp81
ag3
(g7
S'\xd2\xc1w\xd9\x7f\x1e9@'
p82
tp83
Rp84
ag3
(g7
S'\x8a\x12\xa6\xc1\xf4\xaeI@'
p85
tp86
Rp87
ag3
(g7
S',7\xabp\x93\x85?@'
p88
tp89
Rp90
ag3
(g7
S'\xed\xf7\xeb\x87\x818A@'
p91
tp92
Rp93
ag3
(g7
S'k\x13`\x91MK1@'
p94
tp95
Rp96
ag3
(g7
S'MW\x99\xe5mc\x02@'
p97
tp98
Rp99
ag3
(g7
S'(\xed\x18+\xf0=A@'
p100
tp101
Rp102
ag3
(g7
S'\x9e_\r\x03\xe3r:@'
p103
tp104
Rp105
ag3
(g7
S'\xf28Ho\xa5\x82P@'
p106
tp107
Rp108
ag3
(g7
S'\x9f\xba\xff\xefWJL@'
p109
tp110
Rp111
ag3
(g7
S'\xee9\x04^\x84\x85K@'
p112
tp113
Rp114
ag3
(g7
S'\xe5?+\xf3\r:Z@'
p115
tp116
Rp117
ag3
(g7
S'\xc6\x85\xba\xc1\x18wS@'
p118
tp119
Rp120
ag3
(g7
S"\xd5@W\xd2\x1b\xfb'@"
p121
tp122
Rp123
ag3
(g7
S'\xfe\xc7\xd9p\x81\xc9M@'
p124
tp125
Rp126
ag3
(g7
S'\xa0V\xb8\xadq\xdf\xf7?'
p127
tp128
Rp129
ag3
(g7
S'|@t\t\nq$@'
p130
tp131
Rp132
ag3
(g7
S'\x94w*~N\xb8:@'
p133
tp134
Rp135
ag3
(g7
S'\x1f\x93\xcdY\xfe:V@'
p136
tp137
Rp138
ag3
(g7
S'"\xe5 w\'\xc9V@'
p139
tp140
Rp141
ag3
(g7
S'\x8d\xdc\xc4\xf8H\xf3U@'
p142
tp143
Rp144
ag3
(g7
S'\xdc}A\xd7#\xc5Q@'
p145
tp146
Rp147
ag3
(g7
S'\x88\x85[q\xf8\xc1L@'
p148
tp149
Rp150
ag3
(g7
S'\xd6ZZ\x0e1=h@'
p151
tp152
Rp153
aa.