(lp0
(lp1
F8231.406828
aF8252.393524
aF8275.626506
aF8311.63059
aF8320.855356
aF8330.449354
aF8358.72594
aF8367.393599
aF8384.723465
aF8416.726817
aF8445.486996
aF8446.511509
aF8456.346772
aF8464.236635
aF8465.670502
aF8471.825985
aF8490.305885
aF8510.623937
aF8539.79291
aa(lp2
cnumpy.core.multiarray
scalar
p3
(cnumpy
dtype
p4
(S'f8'
p5
I0
I1
tp6
Rp7
(I3
S'<'
p8
NNNI-1
I-1
I0
tp9
bS'\x90\xe0\x8a/\x02\x8f1@'
p10
tp11
Rp12
ag3
(g7
S'9\xb7\x11\x1e,\x1eT@'
p13
tp14
Rp15
ag3
(g7
S'\xb8\xaf\xa9\xb1\xe7\xcab@'
p16
tp17
Rp18
ag3
(g7
S'\x14Z\x9a\x80\xaf\xe2i@'
p19
tp20
Rp21
ag3
(g7
S'3@\x0f\xe1\xb3k%@'
p22
tp23
Rp24
ag3
(g7
S'\xa84\xd0\xc1\x1brJ@'
p25
tp26
Rp27
ag3
(g7
S'>\xb6V2\xf8\x14=@'
p28
tp29
Rp30
ag3
(g7
S'\xec\x8f\x80 1&3@'
p31
tp32
Rp33
ag3
(g7
S'd\xcc\xa9f(r\x81@'
p34
tp35
Rp36
ag3
(g7
S'=\x97\x06g\xe1\x11\x91@'
p37
tp38
Rp39
ag3
(g7
S'l\xd3\xf9[\xdf\xf2\x81@'
p40
tp41
Rp42
ag3
(g7
S'M#r 9\xb0\x7f@'
p43
tp44
Rp45
ag3
(g7
S'kJ$\x0eR-,@'
p46
tp47
Rp48
ag3
(g7
S'6\x0bm\xd7\xce\xc7H@'
p49
tp50
Rp51
ag3
(g7
S'\x90)\xf8z\xf9dn@'
p52
tp53
Rp54
ag3
(g7
S'\xa5I\xba\xd8\x04\xc7a@'
p55
tp56
Rp57
ag3
(g7
S'H]|\x18\xefEB@'
p58
tp59
Rp60
ag3
(g7
S'm\xfet6\xdc\x1fF@'
p61
tp62
Rp63
ag3
(g7
S'\xef\xa2L\x9a\x02T\xe5?'
p64
tp65
Rp66
aa.