(lp0
(lp1
F5158.604754
aF5161.539521
aF5162.285814
aF5163.458074
aF5165.772981
aF5173.672033
aF5174.799363
aF5175.325212
aF5175.911809
aF5183.990252
aF5184.454017
aF5186.413027
aF5190.871176
aF5194.457234
aF5195.813306
aF5203.846874
aF5205.152904
aF5209.724726
aF5211.230608
aF5216.59658
aF5218.527844
aF5219.11026
aF5220.927451
aF5221.862481
aF5228.224679
aF5230.500431
aF5233.225429
aF5238.813071
aF5240.196395
aF5245.376753
aF5247.654859
aF5247.983966
aF5249.545574
aF5250.87281
aF5256.562889
aF5258.360132
aF5259.775891
aF5260.104444
aF5266.710292
aF5267.163945
aF5267.965177
aF5268.255384
aF5272.92704
aF5274.118669
aF5281.068457
aF5281.628674
aF5286.069521
aF5286.88695
aF5291.81662
aF5293.811852
aF5294.396938
aF5298.282447
aF5298.560336
aF5299.080921
aF5300.523253
aF5306.98638
aF5307.465492
aF5310.266559
aF5312.001778
aF5317.49444
aF5318.426814
aF5320.769926
aF5322.89885
aF5325.143845
aF5325.431684
aF5326.975658
aF5340.498065
aF5343.581173
aF5344.524321
aF5345.31147
aF5346.377927
aF5347.971782
aF5349.005334
aF5351.126857
aF5354.601394
aF5355.636115
aF5359.826437
aF5360.149511
aF5361.155263
aF5362.575235
aa(lp2
cnumpy.core.multiarray
scalar
p3
(cnumpy
dtype
p4
(S'f8'
p5
I0
I1
tp6
Rp7
(I3
S'<'
p8
NNNI-1
I-1
I0
tp9
bS'Q=EC\x0e*K@'
p10
tp11
Rp12
ag3
(g7
S'Q\xbe\xa64D<O@'
p13
tp14
Rp15
ag3
(g7
S'\xa0!\xe9S\x96gM@'
p16
tp17
Rp18
ag3
(g7
S'~X\x13\xd8\xfd\xc5&@'
p19
tp20
Rp21
ag3
(g7
S'\xf9\x1a\t(\x8a\x8b[@'
p22
tp23
Rp24
ag3
(g7
S':P\x96 &\xa1[@'
p25
tp26
Rp27
ag3
(g7
S'\xbb\x91U?\x15\xe3G@'
p28
tp29
Rp30
ag3
(g7
S'\x0bB)\xdb\x84\x18`@'
p31
tp32
Rp33
ag3
(g7
S'2\x0c\xbf}\xd6eh@'
p34
tp35
Rp36
ag3
(g7
S'\xe3n2\xfd\x1b\x7fb@'
p37
tp38
Rp39
ag3
(g7
S'V\n\x0eB}%C@'
p40
tp41
Rp42
ag3
(g7
S'\xf2+pf\xfa\r5@'
p43
tp44
Rp45
ag3
(g7
S'\xf6)\xfd\x89\x19\xc8 @'
p46
tp47
Rp48
ag3
(g7
S'\x91\xf5\xe5RzSS@'
p49
tp50
Rp51
ag3
(g7
S'@\xadv|\x1b\x15@@'
p52
tp53
Rp54
ag3
(g7
S'a6\x12B/\x83e@'
p55
tp56
Rp57
ag3
(g7
S'\xed\x96\x16K\xaci[@'
p58
tp59
Rp60
ag3
(g7
S'\xcf\xa8\xeb@\xd3\x9e\x0b@'
p61
tp62
Rp63
ag3
(g7
S'\xd6[\x8bYS\xe0G@'
p64
tp65
Rp66
ag3
(g7
S'\xa3\x9d+\x03\xee\xcd^@'
p67
tp68
Rp69
ag3
(g7
S'\xf6\xa2\x91Ew|Q@'
p70
tp71
Rp72
ag3
(g7
S'\x88\x96\xde\xd5v\xe0$@'
p73
tp74
Rp75
ag3
(g7
S'P\xe0\xf5&\x87\xa68@'
p76
tp77
Rp78
ag3
(g7
S'\x01\xbf2{A\xe7E@'
p79
tp80
Rp81
ag3
(g7
S'\x9a\xc7\x7fm\x1dd\xf4?'
p82
tp83
Rp84
ag3
(g7
S'_\xec\x1e&]\xd9j@'
p85
tp86
Rp87
ag3
(g7
S'fFJ&\x06c\x04@'
p88
tp89
Rp90
ag3
(g7
S'2J\n\x99\xe5\xd4@@'
p91
tp92
Rp93
ag3
(g7
S'\x025\xd5xYB\xf2?'
p94
tp95
Rp96
ag3
(g7
S'\xb6\x8b\x0e;_\x0bp@'
p97
tp98
Rp99
ag3
(g7
S'\x85\xe3\xc7\x01\x164[@'
p100
tp101
Rp102
ag3
(g7
S'\xc0Z!\xfb\xf4\x07Q@'
p103
tp104
Rp105
ag3
(g7
S'\xca` \x06\xc0\x07P@'
p106
tp107
Rp108
ag3
(g7
S'\x87\xb9:\xff96\\@'
p109
tp110
Rp111
ag3
(g7
S'\xd8Jc\x999F+@'
p112
tp113
Rp114
ag3
(g7
S'\xd7\x88?\x82\xa8\xa5#@'
p115
tp116
Rp117
ag3
(g7
S'|h\x11\xd1B\\T@'
p118
tp119
Rp120
ag3
(g7
S'\xd6\xf8\x06`\x9b=\x12@'
p121
tp122
Rp123
ag3
(g7
S'\xb7/\xe4w\xd6.?@'
p124
tp125
Rp126
ag3
(g7
S'\xe1X<\xdcw\xcd\x1c@'
p127
tp128
Rp129
ag3
(g7
S'\x0fu\xb8\x19T\x1bC@'
p130
tp131
Rp132
ag3
(g7
S'\xdfq\x0b\x0f\x947S@'
p133
tp134
Rp135
ag3
(g7
S'n\xba\x0cH\xe5"P@'
p136
tp137
Rp138
ag3
(g7
S'\x19\xa3\xae\xab\xda\x8b\xcd?'
p139
tp140
Rp141
ag3
(g7
S'\x90\xfb\x06&t\xa5@@'
p142
tp143
Rp144
ag3
(g7
S'\x01"\x82\x8fb\x916@'
p145
tp146
Rp147
ag3
(g7
S'!P\xcb|^)\r@'
p148
tp149
Rp150
ag3
(g7
S'y\xdb\x1e\xb6\xd6\x8fS@'
p151
tp152
Rp153
ag3
(g7
S'>B\xa4\x03A7A@'
p154
tp155
Rp156
ag3
(g7
S'gnh\xae5\xc8S@'
p157
tp158
Rp159
ag3
(g7
S'\x95\xd1\xf1,[FH@'
p160
tp161
Rp162
ag3
(g7
S'\x1aA5)rn\x1a@'
p163
tp164
Rp165
ag3
(g7
S'\xdb\xedD\xe4\x1f+_@'
p166
tp167
Rp168
ag3
(g7
S'TT0\x83\x04\x93^@'
p169
tp170
Rp171
ag3
(g7
S'/t3y\xd75\x01@'
p172
tp173
Rp174
ag3
(g7
S'\xa1\x06lF\x04\x9fR@'
p175
tp176
Rp177
ag3
(g7
S'\xf3\x16t\xca.\x1b`@'
p178
tp179
Rp180
ag3
(g7
S'\x87<\xa9\xcb\x83iK@'
p181
tp182
Rp183
ag3
(g7
S'\xf0\x0e.u\xf9m\xe8?'
p184
tp185
Rp186
ag3
(g7
S'\xad,a2\x19\xceX@'
p187
tp188
Rp189
ag3
(g7
S'a\xc0\x0b\xfd\xc9\xe8d@'
p190
tp191
Rp192
ag3
(g7
S'\x82\xe6-\xfbJ\x850@'
p193
tp194
Rp195
ag3
(g7
S'\xab|\xca\xf4\xe5|F@'
p196
tp197
Rp198
ag3
(g7
S'u|\xd3\xfe/\xbe/@'
p199
tp200
Rp201
ag3
(g7
S'\xccG`H\x1e\xce%@'
p202
tp203
Rp204
ag3
(g7
S'F\x8cs\xa1\xf2\xf6F@'
p205
tp206
Rp207
ag3
(g7
S"h\x88w\x97\xec$'@"
p208
tp209
Rp210
ag3
(g7
S'\xd0\xe2)\xfb=\xfaA@'
p211
tp212
Rp213
ag3
(g7
S'!\xb1y;\xc4qG@'
p214
tp215
Rp216
ag3
(g7
S'\xa7m\x81)tM5@'
p217
tp218
Rp219
ag3
(g7
S'5\x93\xc5\x02.\x0eD@'
p220
tp221
Rp222
ag3
(g7
S'\xc5\x97\xb1\xe4F3;@'
p223
tp224
Rp225
ag3
(g7
S'\xf0\x83\xdb\xbcX\xe9X@'
p226
tp227
Rp228
ag3
(g7
S'\xc0\xcfSg=\xe6[@'
p229
tp230
Rp231
ag3
(g7
S'm+\xc3\xc9\xabWU@'
p232
tp233
Rp234
ag3
(g7
S'\xdf\x0e\x03\xc5,\xd1A@'
p235
tp236
Rp237
ag3
(g7
S'[\x93\xb6=:\xc65@'
p238
tp239
Rp240
ag3
(g7
S's^\xd1\x12\xd8\x080@'
p241
tp242
Rp243
ag3
(g7
S'\x8d[.\xf1\xba:R@'
p244
tp245
Rp246
ag3
(g7
S'\xed=3\xee<\xc1A@'
p247
tp248
Rp249
aa.