(lp0
(lp1
F5834.264304
aF5838.949666
aF5840.64
aF5843.804948
aF5845.919546
aF5852.680944
aF5853.474514
aF5854.120429
aF5860.31081
aF5863.719119
aF5866.812191
aF5868.374378
aF5869.851186
aF5871.182407
aF5872.602399
aF5874.350625
aF5881.907559
aF5882.624429
aF5885.701097
aF5886.531229
aF5891.45079
aF5894.700104
aF5895.281404
aF5895.924028
aF5896.363174
aF5899.844054
aF5902.601574
aF5905.175364
aF5905.570764
aF5911.230285
aF5914.385629
aF5918.945499
aF5925.404219
aF5926.231866
aF5929.933924
aF5937.663235
aF5942.35795
aF5944.647267
aF5948.798653
aF5955.561293
aF5956.25726
aF5960.782045
aF5964.472956
aF5968.319156
aF5969.736805
aF5975.065492
aF5985.915285
aF5986.266195
aF5987.301034
aF5989.044879
aF5991.006437
aF5993.492876
aF5996.629542
aF5998.998413
aF6000.76217
aF6001.203223
aF6001.73306
aF6005.16538
aF6007.071707
aF6010.160403
aF6013.677581
aF6015.421838
aF6017.527619
aF6021.035954
aF6023.224636
aF6026.045185
aF6027.247932
aF6029.226527
aF6029.649655
aF6030.444634
aF6032.872513
aF6035.192945
aF6038.680894
aF6042.589816
aF6050.981354
aF6052.723191
aF6053.380881
aF6055.593561
aa(lp2
cnumpy.core.multiarray
scalar
p3
(cnumpy
dtype
p4
(S'f8'
p5
I0
I1
tp6
Rp7
(I3
S'<'
p8
NNNI-1
I-1
I0
tp9
bS'$\xe6:N\x13(t@'
p10
tp11
Rp12
ag3
(g7
S'\x16\xfd\xae{\xf7\x10w@'
p13
tp14
Rp15
ag3
(g7
S'\xed!\xeb\x1f\xe1F^@'
p16
tp17
Rp18
ag3
(g7
S'\x9c/\x1f\xc7\x8a\x0c^@'
p19
tp20
Rp21
ag3
(g7
S'xP\x91\xc8\x15J0@'
p22
tp23
Rp24
ag3
(g7
S'\xe1\xf0\x97\xb4/\x1e_@'
p25
tp26
Rp27
ag3
(g7
S'\x04\x0c"\xfakPP@'
p28
tp29
Rp30
ag3
(g7
S'Mm\x8bh\xba3U@'
p31
tp32
Rp33
ag3
(g7
S'f\xe8\x85k\xd9\x0bB@'
p34
tp35
Rp36
ag3
(g7
S'\xa9\xe0\xa3\xb5\x1a\x0e@@'
p37
tp38
Rp39
ag3
(g7
S'FJn\x07E\x18E@'
p40
tp41
Rp42
ag3
(g7
S'vG\x08\xcf\x9cvM@'
p43
tp44
Rp45
ag3
(g7
S'+~j\xf0\xb2mk@'
p46
tp47
Rp48
ag3
(g7
S'$R\x85\x0bF8\x13@'
p49
tp50
Rp51
ag3
(g7
S'\xdb)+\\\x02_X@'
p52
tp53
Rp54
ag3
(g7
S'\x0c\x01\xecE:\xdaU@'
p55
tp56
Rp57
ag3
(g7
S'\xc9w\xfc\x7f\x9d\xecD@'
p58
tp59
Rp60
ag3
(g7
S'\xdd[\xeeT\xdb\x89;@'
p61
tp62
Rp63
ag3
(g7
S'\xbd\xb6\xc7\xe8E\xa2L@'
p64
tp65
Rp66
ag3
(g7
S'+\x86\x1c\xf2\x84\xacS@'
p67
tp68
Rp69
ag3
(g7
S'\xe3\xf9\x15\x04\xcee\x17@'
p70
tp71
Rp72
ag3
(g7
S'\x86_\x07h\xbdal@'
p73
tp74
Rp75
ag3
(g7
S'+\x15N\xbe\xaa\x05.@'
p76
tp77
Rp78
ag3
(g7
S'\xbc\xdf\x85G\x18\xde6@'
p79
tp80
Rp81
ag3
(g7
S'\xe4\x0f\xe2\xcf\xd5\xc5E@'
p82
tp83
Rp84
ag3
(g7
S'\xe4a`\x81\x85\xffe@'
p85
tp86
Rp87
ag3
(g7
S')\xc5\x7f\x91\x83\xeb9@'
p88
tp89
Rp90
ag3
(g7
S'\x96\x8b\x01\xea9\xa5\x86@'
p91
tp92
Rp93
ag3
(g7
S'\xfe\xb93\xbf\xc9\x0eE@'
p94
tp95
Rp96
ag3
(g7
S'~\x8b"P\xa1\xc3f@'
p97
tp98
Rp99
ag3
(g7
S'Y\xe9\xbb\xc4\xf1\x03?@'
p100
tp101
Rp102
ag3
(g7
S'X\xdd\x0b;\x1b\xb3J@'
p103
tp104
Rp105
ag3
(g7
S'\xffU\x99"\x88\x8bY@'
p106
tp107
Rp108
ag3
(g7
S'\xa8\xef\xe3t\xfd\x061@'
p109
tp110
Rp111
ag3
(g7
S'q\xcd\x12\xa8U^D@'
p112
tp113
Rp114
ag3
(g7
S'\xacE\xa2\x05MkB@'
p115
tp116
Rp117
ag3
(g7
S'w\xb4\xce\xeb\xad\xcbM@'
p118
tp119
Rp120
ag3
(g7
S'KS\xcf\x11\xab\x978@'
p121
tp122
Rp123
ag3
(g7
S'\x06\xdc\xdd\xcf%\x08+@'
p124
tp125
Rp126
ag3
(g7
S'lSX\xadT\x1eE@'
p127
tp128
Rp129
ag3
(g7
S'\x98\x8aH\xef\x1f\x0fh@'
p130
tp131
Rp132
ag3
(g7
S'\x93\xda\xbf}\x96\xc7i@'
p133
tp134
Rp135
ag3
(g7
S'.\rp\xfe\xd29a@'
p136
tp137
Rp138
ag3
(g7
S'\xc0\x9f\x07CU\xffD@'
p139
tp140
Rp141
ag3
(g7
S'o?\xc8.\xb1H0@'
p142
tp143
Rp144
ag3
(g7
S'\xe6d\x9bT\x80s @'
p145
tp146
Rp147
ag3
(g7
S'g\xaf\x1e\xeb[\xbdb@'
p148
tp149
Rp150
ag3
(g7
S'\x90\x8a\xb9{%OI@'
p151
tp152
Rp153
ag3
(g7
S'tjr\x1c\x02\xd6H@'
p154
tp155
Rp156
ag3
(g7
S'\xa8\x97\x80\x17\x88\xba\x0e@'
p157
tp158
Rp159
ag3
(g7
S'W\xf2u\xe1\xe5\x8a\x18@'
p160
tp161
Rp162
ag3
(g7
S'\x1c\x90\xa2!W/?@'
p163
tp164
Rp165
ag3
(g7
S'i3y\xae\xdd\x84?@'
p166
tp167
Rp168
ag3
(g7
S'\x8c$\x07\xb4P\x08`@'
p169
tp170
Rp171
ag3
(g7
S'f^\x11\xa6\xd48A@'
p172
tp173
Rp174
ag3
(g7
S'\xc0\x16\x02\xf3\x99\x18&@'
p175
tp176
Rp177
ag3
(g7
S'\xa5yV\x91\x9fk\x83@'
p178
tp179
Rp180
ag3
(g7
S'\xbcN\xb7DcDF@'
p181
tp182
Rp183
ag3
(g7
S'\x082\x13\x17\xb1+\x1e@'
p184
tp185
Rp186
ag3
(g7
S'P\x9f\xf4:L\nM@'
p187
tp188
Rp189
ag3
(g7
S'\x0c\x94\xa2.\x10\xb6;@'
p190
tp191
Rp192
ag3
(g7
S'w<\xcb\xd5\x9af4@'
p193
tp194
Rp195
ag3
(g7
S'\xe4Yj\xf1\xafa\\@'
p196
tp197
Rp198
ag3
(g7
S'\xaaj\xe8[\xd8\x93\x03@'
p199
tp200
Rp201
ag3
(g7
S'\x18\n_\xaf\xc5\x109@'
p202
tp203
Rp204
ag3
(g7
S'\x0b\x07\xf6\xd5\xae\xe6y@'
p205
tp206
Rp207
ag3
(g7
S'\xbe\x05\xf0\xed\x17\xc0i@'
p208
tp209
Rp210
ag3
(g7
S'\x9f\xfeF\xe3c\xb9J@'
p211
tp212
Rp213
ag3
(g7
S'\x97q\x9fF\x9cPc@'
p214
tp215
Rp216
ag3
(g7
S'\x12\xe6c\xdb\xfc\x94L@'
p217
tp218
Rp219
ag3
(g7
S'\xd6\x14\xcbO#\xd0h@'
p220
tp221
Rp222
ag3
(g7
S'3TI[\xafZA@'
p223
tp224
Rp225
ag3
(g7
S'+\x98\x84\xc0\xb8?3@'
p226
tp227
Rp228
ag3
(g7
S'\xeep\xe8\x1e1\\N@'
p229
tp230
Rp231
ag3
(g7
S'\xa7\xeb\x07\x110kP@'
p232
tp233
Rp234
ag3
(g7
S"s9>\x03P\x07'@"
p235
tp236
Rp237
ag3
(g7
S'\xed\x1d\xcc:\x165-@'
p238
tp239
Rp240
ag3
(g7
S'\xae\n\xc9\xbe_7W@'
p241
tp242
Rp243
aa.